   1              		.cpu cortex-m4
   2              		.eabi_attribute 27, 1
   3              		.eabi_attribute 28, 1
   4              		.eabi_attribute 20, 1
   5              		.eabi_attribute 21, 1
   6              		.eabi_attribute 23, 3
   7              		.eabi_attribute 24, 1
   8              		.eabi_attribute 25, 1
   9              		.eabi_attribute 26, 1
  10              		.eabi_attribute 30, 6
  11              		.eabi_attribute 34, 1
  12              		.eabi_attribute 18, 4
  13              		.file	"startup_mk64f12.c"
  14              		.text
  15              	.Ltext0:
  16              		.cfi_sections	.debug_frame
  17              		.global	Flash_Config
  18              		.section	.FlashConfig,"a",%progbits
  19              		.align	2
  22              	Flash_Config:
  23 0000 FFFFFFFF 		.word	-1
  24 0004 FFFFFFFF 		.word	-1
  25 0008 FFFFFFFF 		.word	-1
  26 000c FEFFFFFF 		.word	-2
  27              		.global	g_pfnVectors
  28              		.section	.isr_vector,"a",%progbits
  29              		.align	2
  32              	g_pfnVectors:
  33 0000 00000000 		.word	_vStackTop
  34 0004 00000000 		.word	ResetISR
  35 0008 00000000 		.word	NMI_Handler
  36 000c 00000000 		.word	HardFault_Handler
  37 0010 00000000 		.word	MemManage_Handler
  38 0014 00000000 		.word	BusFault_Handler
  39 0018 00000000 		.word	UsageFault_Handler
  40 001c 00000000 		.word	0
  41 0020 00000000 		.word	0
  42 0024 00000000 		.word	0
  43 0028 00000000 		.word	0
  44 002c 00000000 		.word	SVC_Handler
  45 0030 00000000 		.word	DebugMon_Handler
  46 0034 00000000 		.word	0
  47 0038 00000000 		.word	PendSV_Handler
  48 003c 00000000 		.word	SysTick_Handler
  49 0040 00000000 		.word	DMA0_IRQHandler
  50 0044 00000000 		.word	DMA1_IRQHandler
  51 0048 00000000 		.word	DMA2_IRQHandler
  52 004c 00000000 		.word	DMA3_IRQHandler
  53 0050 00000000 		.word	DMA4_IRQHandler
  54 0054 00000000 		.word	DMA5_IRQHandler
  55 0058 00000000 		.word	DMA6_IRQHandler
  56 005c 00000000 		.word	DMA7_IRQHandler
  57 0060 00000000 		.word	DMA8_IRQHandler
  58 0064 00000000 		.word	DMA9_IRQHandler
  59 0068 00000000 		.word	DMA10_IRQHandler
  60 006c 00000000 		.word	DMA11_IRQHandler
  61 0070 00000000 		.word	DMA12_IRQHandler
  62 0074 00000000 		.word	DMA13_IRQHandler
  63 0078 00000000 		.word	DMA14_IRQHandler
  64 007c 00000000 		.word	DMA15_IRQHandler
  65 0080 00000000 		.word	DMA_Error_IRQHandler
  66 0084 00000000 		.word	MCM_IRQHandler
  67 0088 00000000 		.word	FTFE_IRQHandler
  68 008c 00000000 		.word	Read_Collision_IRQHandler
  69 0090 00000000 		.word	LVD_LVW_IRQHandler
  70 0094 00000000 		.word	LLWU_IRQHandler
  71 0098 00000000 		.word	WDOG_EWM_IRQHandler
  72 009c 00000000 		.word	RNG_IRQHandler
  73 00a0 00000000 		.word	I2C0_IRQHandler
  74 00a4 00000000 		.word	I2C1_IRQHandler
  75 00a8 00000000 		.word	SPI0_IRQHandler
  76 00ac 00000000 		.word	SPI1_IRQHandler
  77 00b0 00000000 		.word	I2S0_Tx_IRQHandler
  78 00b4 00000000 		.word	I2S0_Rx_IRQHandler
  79 00b8 00000000 		.word	UART0_LON_IRQHandler
  80 00bc 00000000 		.word	UART0_RX_TX_IRQHandler
  81 00c0 00000000 		.word	UART0_ERR_IRQHandler
  82 00c4 00000000 		.word	UART1_RX_TX_IRQHandler
  83 00c8 00000000 		.word	UART1_ERR_IRQHandler
  84 00cc 00000000 		.word	UART2_RX_TX_IRQHandler
  85 00d0 00000000 		.word	UART2_ERR_IRQHandler
  86 00d4 00000000 		.word	UART3_RX_TX_IRQHandler
  87 00d8 00000000 		.word	UART3_ERR_IRQHandler
  88 00dc 00000000 		.word	ADC0_IRQHandler
  89 00e0 00000000 		.word	CMP0_IRQHandler
  90 00e4 00000000 		.word	CMP1_IRQHandler
  91 00e8 00000000 		.word	FTM0_IRQHandler
  92 00ec 00000000 		.word	FTM1_IRQHandler
  93 00f0 00000000 		.word	FTM2_IRQHandler
  94 00f4 00000000 		.word	CMT_IRQHandler
  95 00f8 00000000 		.word	RTC_IRQHandler
  96 00fc 00000000 		.word	RTC_Seconds_IRQHandler
  97 0100 00000000 		.word	PIT0_IRQHandler
  98 0104 00000000 		.word	PIT1_IRQHandler
  99 0108 00000000 		.word	PIT2_IRQHandler
 100 010c 00000000 		.word	PIT3_IRQHandler
 101 0110 00000000 		.word	PDB0_IRQHandler
 102 0114 00000000 		.word	USB0_IRQHandler
 103 0118 00000000 		.word	USBDCD_IRQHandler
 104 011c 00000000 		.word	Reserved71_IRQHandler
 105 0120 00000000 		.word	DAC0_IRQHandler
 106 0124 00000000 		.word	MCG_IRQHandler
 107 0128 00000000 		.word	LPTMR0_IRQHandler
 108 012c 00000000 		.word	PORTA_IRQHandler
 109 0130 00000000 		.word	PORTB_IRQHandler
 110 0134 00000000 		.word	PORTC_IRQHandler
 111 0138 00000000 		.word	PORTD_IRQHandler
 112 013c 00000000 		.word	PORTE_IRQHandler
 113 0140 00000000 		.word	SWI_IRQHandler
 114 0144 00000000 		.word	SPI2_IRQHandler
 115 0148 00000000 		.word	UART4_RX_TX_IRQHandler
 116 014c 00000000 		.word	UART4_ERR_IRQHandler
 117 0150 00000000 		.word	UART5_RX_TX_IRQHandler
 118 0154 00000000 		.word	UART5_ERR_IRQHandler
 119 0158 00000000 		.word	CMP2_IRQHandler
 120 015c 00000000 		.word	FTM3_IRQHandler
 121 0160 00000000 		.word	DAC1_IRQHandler
 122 0164 00000000 		.word	ADC1_IRQHandler
 123 0168 00000000 		.word	I2C2_IRQHandler
 124 016c 00000000 		.word	CAN0_ORed_Message_buffer_IRQHandler
 125 0170 00000000 		.word	CAN0_Bus_Off_IRQHandler
 126 0174 00000000 		.word	CAN0_Error_IRQHandler
 127 0178 00000000 		.word	CAN0_Tx_Warning_IRQHandler
 128 017c 00000000 		.word	CAN0_Rx_Warning_IRQHandler
 129 0180 00000000 		.word	CAN0_Wake_Up_IRQHandler
 130 0184 00000000 		.word	SDHC_IRQHandler
 131 0188 00000000 		.word	ENET_1588_Timer_IRQHandler
 132 018c 00000000 		.word	ENET_Transmit_IRQHandler
 133 0190 00000000 		.word	ENET_Receive_IRQHandler
 134 0194 00000000 		.word	ENET_Error_IRQHandler
 135              		.global	__Vectors
 136              		.set	__Vectors,g_pfnVectors
 137              		.section	.after_vectors.init_data,"ax",%progbits
 138              		.align	1
 139              		.global	data_init
 140              		.syntax unified
 141              		.thumb
 142              		.thumb_func
 143              		.fpu fpv4-sp-d16
 145              	data_init:
 146              	.LFB0:
 147              		.file 1 "../startup/startup_mk64f12.c"
   1:../startup/startup_mk64f12.c **** //*****************************************************************************
   2:../startup/startup_mk64f12.c **** // MK64F12 startup code for use with MCUXpresso IDE
   3:../startup/startup_mk64f12.c **** //
   4:../startup/startup_mk64f12.c **** // Version : 060117
   5:../startup/startup_mk64f12.c **** //*****************************************************************************
   6:../startup/startup_mk64f12.c **** //
   7:../startup/startup_mk64f12.c **** // Copyright(C) NXP Semiconductors, 2017
   8:../startup/startup_mk64f12.c **** // All rights reserved.
   9:../startup/startup_mk64f12.c **** //
  10:../startup/startup_mk64f12.c **** // Redistribution and use in source and binary forms, with or without modification,
  11:../startup/startup_mk64f12.c **** // are permitted provided that the following conditions are met:
  12:../startup/startup_mk64f12.c **** //
  13:../startup/startup_mk64f12.c **** // o Redistributions of source code must retain the above copyright notice, this list
  14:../startup/startup_mk64f12.c **** //   of conditions and the following disclaimer.
  15:../startup/startup_mk64f12.c **** //
  16:../startup/startup_mk64f12.c **** // o Redistributions in binary form must reproduce the above copyright notice, this
  17:../startup/startup_mk64f12.c **** //   list of conditions and the following disclaimer in the documentation and/or
  18:../startup/startup_mk64f12.c **** //   other materials provided with the distribution.
  19:../startup/startup_mk64f12.c **** //
  20:../startup/startup_mk64f12.c **** // o Neither the name of copyright holder nor the names of its
  21:../startup/startup_mk64f12.c **** //   contributors may be used to endorse or promote products derived from this
  22:../startup/startup_mk64f12.c **** //   software without specific prior written permission.
  23:../startup/startup_mk64f12.c **** //
  24:../startup/startup_mk64f12.c **** // THIS SOFTWARE IS PROVIDED BY THE COPYRIGHT HOLDERS AND CONTRIBUTORS "AS IS" AND
  25:../startup/startup_mk64f12.c **** // ANY EXPRESS OR IMPLIED WARRANTIES, INCLUDING, BUT NOT LIMITED TO, THE IMPLIED
  26:../startup/startup_mk64f12.c **** // WARRANTIES OF MERCHANTABILITY AND FITNESS FOR A PARTICULAR PURPOSE ARE
  27:../startup/startup_mk64f12.c **** // DISCLAIMED. IN NO EVENT SHALL THE COPYRIGHT HOLDER OR CONTRIBUTORS BE LIABLE FOR
  28:../startup/startup_mk64f12.c **** // ANY DIRECT, INDIRECT, INCIDENTAL, SPECIAL, EXEMPLARY, OR CONSEQUENTIAL DAMAGES
  29:../startup/startup_mk64f12.c **** // (INCLUDING, BUT NOT LIMITED TO, PROCUREMENT OF SUBSTITUTE GOODS OR SERVICES;
  30:../startup/startup_mk64f12.c **** // LOSS OF USE, DATA, OR PROFITS; OR BUSINESS INTERRUPTION) HOWEVER CAUSED AND ON
  31:../startup/startup_mk64f12.c **** // ANY THEORY OF LIABILITY, WHETHER IN CONTRACT, STRICT LIABILITY, OR TORT
  32:../startup/startup_mk64f12.c **** // (INCLUDING NEGLIGENCE OR OTHERWISE) ARISING IN ANY WAY OUT OF THE USE OF THIS
  33:../startup/startup_mk64f12.c **** // SOFTWARE, EVEN IF ADVISED OF THE POSSIBILITY OF SUCH DAMAGE.
  34:../startup/startup_mk64f12.c **** //*****************************************************************************
  35:../startup/startup_mk64f12.c **** 
  36:../startup/startup_mk64f12.c **** #if defined (DEBUG)
  37:../startup/startup_mk64f12.c **** #pragma GCC push_options
  38:../startup/startup_mk64f12.c **** #pragma GCC optimize ("Og")
  39:../startup/startup_mk64f12.c **** #endif // (DEBUG)
  40:../startup/startup_mk64f12.c **** 
  41:../startup/startup_mk64f12.c **** #if defined (__cplusplus)
  42:../startup/startup_mk64f12.c **** #ifdef __REDLIB__
  43:../startup/startup_mk64f12.c **** #error Redlib does not support C++
  44:../startup/startup_mk64f12.c **** #else
  45:../startup/startup_mk64f12.c **** //*****************************************************************************
  46:../startup/startup_mk64f12.c **** //
  47:../startup/startup_mk64f12.c **** // The entry point for the C++ library startup
  48:../startup/startup_mk64f12.c **** //
  49:../startup/startup_mk64f12.c **** //*****************************************************************************
  50:../startup/startup_mk64f12.c **** extern "C" {
  51:../startup/startup_mk64f12.c ****     extern void __libc_init_array(void);
  52:../startup/startup_mk64f12.c **** }
  53:../startup/startup_mk64f12.c **** #endif
  54:../startup/startup_mk64f12.c **** #endif
  55:../startup/startup_mk64f12.c **** 
  56:../startup/startup_mk64f12.c **** #define WEAK __attribute__ ((weak))
  57:../startup/startup_mk64f12.c **** #define WEAK_AV __attribute__ ((weak, section(".after_vectors")))
  58:../startup/startup_mk64f12.c **** #define ALIAS(f) __attribute__ ((weak, alias (#f)))
  59:../startup/startup_mk64f12.c **** 
  60:../startup/startup_mk64f12.c **** //*****************************************************************************
  61:../startup/startup_mk64f12.c **** #if defined (__cplusplus)
  62:../startup/startup_mk64f12.c **** extern "C" {
  63:../startup/startup_mk64f12.c **** #endif
  64:../startup/startup_mk64f12.c **** 
  65:../startup/startup_mk64f12.c **** //*****************************************************************************
  66:../startup/startup_mk64f12.c **** // Flash Configuration block : 16-byte flash configuration field that stores
  67:../startup/startup_mk64f12.c **** // default protection settings (loaded on reset) and security information that
  68:../startup/startup_mk64f12.c **** // allows the MCU to restrict access to the Flash Memory module.
  69:../startup/startup_mk64f12.c **** // Placed at address 0x400 by the linker script.
  70:../startup/startup_mk64f12.c **** //*****************************************************************************
  71:../startup/startup_mk64f12.c **** 
  72:../startup/startup_mk64f12.c **** __attribute__ ((used,section(".FlashConfig"))) const struct {
  73:../startup/startup_mk64f12.c ****     unsigned int word1;
  74:../startup/startup_mk64f12.c ****     unsigned int word2;
  75:../startup/startup_mk64f12.c ****     unsigned int word3;
  76:../startup/startup_mk64f12.c ****     unsigned int word4;
  77:../startup/startup_mk64f12.c **** } Flash_Config = {0xFFFFFFFF, 0xFFFFFFFF, 0xFFFFFFFF, 0xFFFFFFFE};
  78:../startup/startup_mk64f12.c **** 
  79:../startup/startup_mk64f12.c **** //*****************************************************************************
  80:../startup/startup_mk64f12.c **** // Declaration of external SystemInit function
  81:../startup/startup_mk64f12.c **** //*****************************************************************************
  82:../startup/startup_mk64f12.c **** #if defined (__USE_CMSIS)
  83:../startup/startup_mk64f12.c **** extern void SystemInit(void);
  84:../startup/startup_mk64f12.c **** #endif // (__USE_CMSIS)
  85:../startup/startup_mk64f12.c **** 
  86:../startup/startup_mk64f12.c **** //*****************************************************************************
  87:../startup/startup_mk64f12.c **** // Forward declaration of the core exception handlers.
  88:../startup/startup_mk64f12.c **** // When the application defines a handler (with the same name), this will
  89:../startup/startup_mk64f12.c **** // automatically take precedence over these weak definitions
  90:../startup/startup_mk64f12.c **** //*****************************************************************************
  91:../startup/startup_mk64f12.c ****      void ResetISR(void);
  92:../startup/startup_mk64f12.c **** WEAK void NMI_Handler(void);
  93:../startup/startup_mk64f12.c **** WEAK void HardFault_Handler(void);
  94:../startup/startup_mk64f12.c **** WEAK void MemManage_Handler(void);
  95:../startup/startup_mk64f12.c **** WEAK void BusFault_Handler(void);
  96:../startup/startup_mk64f12.c **** WEAK void UsageFault_Handler(void);
  97:../startup/startup_mk64f12.c **** WEAK void SVC_Handler(void);
  98:../startup/startup_mk64f12.c **** WEAK void DebugMon_Handler(void);
  99:../startup/startup_mk64f12.c **** WEAK void PendSV_Handler(void);
 100:../startup/startup_mk64f12.c **** WEAK void SysTick_Handler(void);
 101:../startup/startup_mk64f12.c **** WEAK void IntDefaultHandler(void);
 102:../startup/startup_mk64f12.c **** 
 103:../startup/startup_mk64f12.c **** //*****************************************************************************
 104:../startup/startup_mk64f12.c **** // Forward declaration of the application IRQ handlers. When the application
 105:../startup/startup_mk64f12.c **** // defines a handler (with the same name), this will automatically take
 106:../startup/startup_mk64f12.c **** // precedence over weak definitions below
 107:../startup/startup_mk64f12.c **** //*****************************************************************************
 108:../startup/startup_mk64f12.c **** WEAK void DMA0_IRQHandler(void);
 109:../startup/startup_mk64f12.c **** WEAK void DMA1_IRQHandler(void);
 110:../startup/startup_mk64f12.c **** WEAK void DMA2_IRQHandler(void);
 111:../startup/startup_mk64f12.c **** WEAK void DMA3_IRQHandler(void);
 112:../startup/startup_mk64f12.c **** WEAK void DMA4_IRQHandler(void);
 113:../startup/startup_mk64f12.c **** WEAK void DMA5_IRQHandler(void);
 114:../startup/startup_mk64f12.c **** WEAK void DMA6_IRQHandler(void);
 115:../startup/startup_mk64f12.c **** WEAK void DMA7_IRQHandler(void);
 116:../startup/startup_mk64f12.c **** WEAK void DMA8_IRQHandler(void);
 117:../startup/startup_mk64f12.c **** WEAK void DMA9_IRQHandler(void);
 118:../startup/startup_mk64f12.c **** WEAK void DMA10_IRQHandler(void);
 119:../startup/startup_mk64f12.c **** WEAK void DMA11_IRQHandler(void);
 120:../startup/startup_mk64f12.c **** WEAK void DMA12_IRQHandler(void);
 121:../startup/startup_mk64f12.c **** WEAK void DMA13_IRQHandler(void);
 122:../startup/startup_mk64f12.c **** WEAK void DMA14_IRQHandler(void);
 123:../startup/startup_mk64f12.c **** WEAK void DMA15_IRQHandler(void);
 124:../startup/startup_mk64f12.c **** WEAK void DMA_Error_IRQHandler(void);
 125:../startup/startup_mk64f12.c **** WEAK void MCM_IRQHandler(void);
 126:../startup/startup_mk64f12.c **** WEAK void FTFE_IRQHandler(void);
 127:../startup/startup_mk64f12.c **** WEAK void Read_Collision_IRQHandler(void);
 128:../startup/startup_mk64f12.c **** WEAK void LVD_LVW_IRQHandler(void);
 129:../startup/startup_mk64f12.c **** WEAK void LLWU_IRQHandler(void);
 130:../startup/startup_mk64f12.c **** WEAK void WDOG_EWM_IRQHandler(void);
 131:../startup/startup_mk64f12.c **** WEAK void RNG_IRQHandler(void);
 132:../startup/startup_mk64f12.c **** WEAK void I2C0_IRQHandler(void);
 133:../startup/startup_mk64f12.c **** WEAK void I2C1_IRQHandler(void);
 134:../startup/startup_mk64f12.c **** WEAK void SPI0_IRQHandler(void);
 135:../startup/startup_mk64f12.c **** WEAK void SPI1_IRQHandler(void);
 136:../startup/startup_mk64f12.c **** WEAK void I2S0_Tx_IRQHandler(void);
 137:../startup/startup_mk64f12.c **** WEAK void I2S0_Rx_IRQHandler(void);
 138:../startup/startup_mk64f12.c **** WEAK void UART0_LON_IRQHandler(void);
 139:../startup/startup_mk64f12.c **** WEAK void UART0_RX_TX_IRQHandler(void);
 140:../startup/startup_mk64f12.c **** WEAK void UART0_ERR_IRQHandler(void);
 141:../startup/startup_mk64f12.c **** WEAK void UART1_RX_TX_IRQHandler(void);
 142:../startup/startup_mk64f12.c **** WEAK void UART1_ERR_IRQHandler(void);
 143:../startup/startup_mk64f12.c **** WEAK void UART2_RX_TX_IRQHandler(void);
 144:../startup/startup_mk64f12.c **** WEAK void UART2_ERR_IRQHandler(void);
 145:../startup/startup_mk64f12.c **** WEAK void UART3_RX_TX_IRQHandler(void);
 146:../startup/startup_mk64f12.c **** WEAK void UART3_ERR_IRQHandler(void);
 147:../startup/startup_mk64f12.c **** WEAK void ADC0_IRQHandler(void);
 148:../startup/startup_mk64f12.c **** WEAK void CMP0_IRQHandler(void);
 149:../startup/startup_mk64f12.c **** WEAK void CMP1_IRQHandler(void);
 150:../startup/startup_mk64f12.c **** WEAK void FTM0_IRQHandler(void);
 151:../startup/startup_mk64f12.c **** WEAK void FTM1_IRQHandler(void);
 152:../startup/startup_mk64f12.c **** WEAK void FTM2_IRQHandler(void);
 153:../startup/startup_mk64f12.c **** WEAK void CMT_IRQHandler(void);
 154:../startup/startup_mk64f12.c **** WEAK void RTC_IRQHandler(void);
 155:../startup/startup_mk64f12.c **** WEAK void RTC_Seconds_IRQHandler(void);
 156:../startup/startup_mk64f12.c **** WEAK void PIT0_IRQHandler(void);
 157:../startup/startup_mk64f12.c **** WEAK void PIT1_IRQHandler(void);
 158:../startup/startup_mk64f12.c **** WEAK void PIT2_IRQHandler(void);
 159:../startup/startup_mk64f12.c **** WEAK void PIT3_IRQHandler(void);
 160:../startup/startup_mk64f12.c **** WEAK void PDB0_IRQHandler(void);
 161:../startup/startup_mk64f12.c **** WEAK void USB0_IRQHandler(void);
 162:../startup/startup_mk64f12.c **** WEAK void USBDCD_IRQHandler(void);
 163:../startup/startup_mk64f12.c **** WEAK void Reserved71_IRQHandler(void);
 164:../startup/startup_mk64f12.c **** WEAK void DAC0_IRQHandler(void);
 165:../startup/startup_mk64f12.c **** WEAK void MCG_IRQHandler(void);
 166:../startup/startup_mk64f12.c **** WEAK void LPTMR0_IRQHandler(void);
 167:../startup/startup_mk64f12.c **** WEAK void PORTA_IRQHandler(void);
 168:../startup/startup_mk64f12.c **** WEAK void PORTB_IRQHandler(void);
 169:../startup/startup_mk64f12.c **** WEAK void PORTC_IRQHandler(void);
 170:../startup/startup_mk64f12.c **** WEAK void PORTD_IRQHandler(void);
 171:../startup/startup_mk64f12.c **** WEAK void PORTE_IRQHandler(void);
 172:../startup/startup_mk64f12.c **** WEAK void SWI_IRQHandler(void);
 173:../startup/startup_mk64f12.c **** WEAK void SPI2_IRQHandler(void);
 174:../startup/startup_mk64f12.c **** WEAK void UART4_RX_TX_IRQHandler(void);
 175:../startup/startup_mk64f12.c **** WEAK void UART4_ERR_IRQHandler(void);
 176:../startup/startup_mk64f12.c **** WEAK void UART5_RX_TX_IRQHandler(void);
 177:../startup/startup_mk64f12.c **** WEAK void UART5_ERR_IRQHandler(void);
 178:../startup/startup_mk64f12.c **** WEAK void CMP2_IRQHandler(void);
 179:../startup/startup_mk64f12.c **** WEAK void FTM3_IRQHandler(void);
 180:../startup/startup_mk64f12.c **** WEAK void DAC1_IRQHandler(void);
 181:../startup/startup_mk64f12.c **** WEAK void ADC1_IRQHandler(void);
 182:../startup/startup_mk64f12.c **** WEAK void I2C2_IRQHandler(void);
 183:../startup/startup_mk64f12.c **** WEAK void CAN0_ORed_Message_buffer_IRQHandler(void);
 184:../startup/startup_mk64f12.c **** WEAK void CAN0_Bus_Off_IRQHandler(void);
 185:../startup/startup_mk64f12.c **** WEAK void CAN0_Error_IRQHandler(void);
 186:../startup/startup_mk64f12.c **** WEAK void CAN0_Tx_Warning_IRQHandler(void);
 187:../startup/startup_mk64f12.c **** WEAK void CAN0_Rx_Warning_IRQHandler(void);
 188:../startup/startup_mk64f12.c **** WEAK void CAN0_Wake_Up_IRQHandler(void);
 189:../startup/startup_mk64f12.c **** WEAK void SDHC_IRQHandler(void);
 190:../startup/startup_mk64f12.c **** WEAK void ENET_1588_Timer_IRQHandler(void);
 191:../startup/startup_mk64f12.c **** WEAK void ENET_Transmit_IRQHandler(void);
 192:../startup/startup_mk64f12.c **** WEAK void ENET_Receive_IRQHandler(void);
 193:../startup/startup_mk64f12.c **** WEAK void ENET_Error_IRQHandler(void);
 194:../startup/startup_mk64f12.c **** 
 195:../startup/startup_mk64f12.c **** //*****************************************************************************
 196:../startup/startup_mk64f12.c **** // Forward declaration of the driver IRQ handlers. These are aliased
 197:../startup/startup_mk64f12.c **** // to the IntDefaultHandler, which is a 'forever' loop. When the driver
 198:../startup/startup_mk64f12.c **** // defines a handler (with the same name), this will automatically take
 199:../startup/startup_mk64f12.c **** // precedence over these weak definitions
 200:../startup/startup_mk64f12.c **** //*****************************************************************************
 201:../startup/startup_mk64f12.c **** void DMA0_DriverIRQHandler(void) ALIAS(IntDefaultHandler);
 202:../startup/startup_mk64f12.c **** void DMA1_DriverIRQHandler(void) ALIAS(IntDefaultHandler);
 203:../startup/startup_mk64f12.c **** void DMA2_DriverIRQHandler(void) ALIAS(IntDefaultHandler);
 204:../startup/startup_mk64f12.c **** void DMA3_DriverIRQHandler(void) ALIAS(IntDefaultHandler);
 205:../startup/startup_mk64f12.c **** void DMA4_DriverIRQHandler(void) ALIAS(IntDefaultHandler);
 206:../startup/startup_mk64f12.c **** void DMA5_DriverIRQHandler(void) ALIAS(IntDefaultHandler);
 207:../startup/startup_mk64f12.c **** void DMA6_DriverIRQHandler(void) ALIAS(IntDefaultHandler);
 208:../startup/startup_mk64f12.c **** void DMA7_DriverIRQHandler(void) ALIAS(IntDefaultHandler);
 209:../startup/startup_mk64f12.c **** void DMA8_DriverIRQHandler(void) ALIAS(IntDefaultHandler);
 210:../startup/startup_mk64f12.c **** void DMA9_DriverIRQHandler(void) ALIAS(IntDefaultHandler);
 211:../startup/startup_mk64f12.c **** void DMA10_DriverIRQHandler(void) ALIAS(IntDefaultHandler);
 212:../startup/startup_mk64f12.c **** void DMA11_DriverIRQHandler(void) ALIAS(IntDefaultHandler);
 213:../startup/startup_mk64f12.c **** void DMA12_DriverIRQHandler(void) ALIAS(IntDefaultHandler);
 214:../startup/startup_mk64f12.c **** void DMA13_DriverIRQHandler(void) ALIAS(IntDefaultHandler);
 215:../startup/startup_mk64f12.c **** void DMA14_DriverIRQHandler(void) ALIAS(IntDefaultHandler);
 216:../startup/startup_mk64f12.c **** void DMA15_DriverIRQHandler(void) ALIAS(IntDefaultHandler);
 217:../startup/startup_mk64f12.c **** void DMA_Error_DriverIRQHandler(void) ALIAS(IntDefaultHandler);
 218:../startup/startup_mk64f12.c **** void MCM_DriverIRQHandler(void) ALIAS(IntDefaultHandler);
 219:../startup/startup_mk64f12.c **** void FTFE_DriverIRQHandler(void) ALIAS(IntDefaultHandler);
 220:../startup/startup_mk64f12.c **** void Read_Collision_DriverIRQHandler(void) ALIAS(IntDefaultHandler);
 221:../startup/startup_mk64f12.c **** void LVD_LVW_DriverIRQHandler(void) ALIAS(IntDefaultHandler);
 222:../startup/startup_mk64f12.c **** void LLWU_DriverIRQHandler(void) ALIAS(IntDefaultHandler);
 223:../startup/startup_mk64f12.c **** void WDOG_EWM_DriverIRQHandler(void) ALIAS(IntDefaultHandler);
 224:../startup/startup_mk64f12.c **** void RNG_DriverIRQHandler(void) ALIAS(IntDefaultHandler);
 225:../startup/startup_mk64f12.c **** void I2C0_DriverIRQHandler(void) ALIAS(IntDefaultHandler);
 226:../startup/startup_mk64f12.c **** void I2C1_DriverIRQHandler(void) ALIAS(IntDefaultHandler);
 227:../startup/startup_mk64f12.c **** void SPI0_DriverIRQHandler(void) ALIAS(IntDefaultHandler);
 228:../startup/startup_mk64f12.c **** void SPI1_DriverIRQHandler(void) ALIAS(IntDefaultHandler);
 229:../startup/startup_mk64f12.c **** void I2S0_Tx_DriverIRQHandler(void) ALIAS(IntDefaultHandler);
 230:../startup/startup_mk64f12.c **** void I2S0_Rx_DriverIRQHandler(void) ALIAS(IntDefaultHandler);
 231:../startup/startup_mk64f12.c **** void UART0_LON_DriverIRQHandler(void) ALIAS(IntDefaultHandler);
 232:../startup/startup_mk64f12.c **** void UART0_RX_TX_DriverIRQHandler(void) ALIAS(IntDefaultHandler);
 233:../startup/startup_mk64f12.c **** void UART0_ERR_DriverIRQHandler(void) ALIAS(IntDefaultHandler);
 234:../startup/startup_mk64f12.c **** void UART1_RX_TX_DriverIRQHandler(void) ALIAS(IntDefaultHandler);
 235:../startup/startup_mk64f12.c **** void UART1_ERR_DriverIRQHandler(void) ALIAS(IntDefaultHandler);
 236:../startup/startup_mk64f12.c **** void UART2_RX_TX_DriverIRQHandler(void) ALIAS(IntDefaultHandler);
 237:../startup/startup_mk64f12.c **** void UART2_ERR_DriverIRQHandler(void) ALIAS(IntDefaultHandler);
 238:../startup/startup_mk64f12.c **** void UART3_RX_TX_DriverIRQHandler(void) ALIAS(IntDefaultHandler);
 239:../startup/startup_mk64f12.c **** void UART3_ERR_DriverIRQHandler(void) ALIAS(IntDefaultHandler);
 240:../startup/startup_mk64f12.c **** void ADC0_DriverIRQHandler(void) ALIAS(IntDefaultHandler);
 241:../startup/startup_mk64f12.c **** void CMP0_DriverIRQHandler(void) ALIAS(IntDefaultHandler);
 242:../startup/startup_mk64f12.c **** void CMP1_DriverIRQHandler(void) ALIAS(IntDefaultHandler);
 243:../startup/startup_mk64f12.c **** void FTM0_DriverIRQHandler(void) ALIAS(IntDefaultHandler);
 244:../startup/startup_mk64f12.c **** void FTM1_DriverIRQHandler(void) ALIAS(IntDefaultHandler);
 245:../startup/startup_mk64f12.c **** void FTM2_DriverIRQHandler(void) ALIAS(IntDefaultHandler);
 246:../startup/startup_mk64f12.c **** void CMT_DriverIRQHandler(void) ALIAS(IntDefaultHandler);
 247:../startup/startup_mk64f12.c **** void RTC_DriverIRQHandler(void) ALIAS(IntDefaultHandler);
 248:../startup/startup_mk64f12.c **** void RTC_Seconds_DriverIRQHandler(void) ALIAS(IntDefaultHandler);
 249:../startup/startup_mk64f12.c **** void PIT0_DriverIRQHandler(void) ALIAS(IntDefaultHandler);
 250:../startup/startup_mk64f12.c **** void PIT1_DriverIRQHandler(void) ALIAS(IntDefaultHandler);
 251:../startup/startup_mk64f12.c **** void PIT2_DriverIRQHandler(void) ALIAS(IntDefaultHandler);
 252:../startup/startup_mk64f12.c **** void PIT3_DriverIRQHandler(void) ALIAS(IntDefaultHandler);
 253:../startup/startup_mk64f12.c **** void PDB0_DriverIRQHandler(void) ALIAS(IntDefaultHandler);
 254:../startup/startup_mk64f12.c **** void USB0_DriverIRQHandler(void) ALIAS(IntDefaultHandler);
 255:../startup/startup_mk64f12.c **** void USBDCD_DriverIRQHandler(void) ALIAS(IntDefaultHandler);
 256:../startup/startup_mk64f12.c **** void Reserved71_DriverIRQHandler(void) ALIAS(IntDefaultHandler);
 257:../startup/startup_mk64f12.c **** void DAC0_DriverIRQHandler(void) ALIAS(IntDefaultHandler);
 258:../startup/startup_mk64f12.c **** void MCG_DriverIRQHandler(void) ALIAS(IntDefaultHandler);
 259:../startup/startup_mk64f12.c **** void LPTMR0_DriverIRQHandler(void) ALIAS(IntDefaultHandler);
 260:../startup/startup_mk64f12.c **** void PORTA_DriverIRQHandler(void) ALIAS(IntDefaultHandler);
 261:../startup/startup_mk64f12.c **** void PORTB_DriverIRQHandler(void) ALIAS(IntDefaultHandler);
 262:../startup/startup_mk64f12.c **** void PORTC_DriverIRQHandler(void) ALIAS(IntDefaultHandler);
 263:../startup/startup_mk64f12.c **** void PORTD_DriverIRQHandler(void) ALIAS(IntDefaultHandler);
 264:../startup/startup_mk64f12.c **** void PORTE_DriverIRQHandler(void) ALIAS(IntDefaultHandler);
 265:../startup/startup_mk64f12.c **** void SWI_DriverIRQHandler(void) ALIAS(IntDefaultHandler);
 266:../startup/startup_mk64f12.c **** void SPI2_DriverIRQHandler(void) ALIAS(IntDefaultHandler);
 267:../startup/startup_mk64f12.c **** void UART4_RX_TX_DriverIRQHandler(void) ALIAS(IntDefaultHandler);
 268:../startup/startup_mk64f12.c **** void UART4_ERR_DriverIRQHandler(void) ALIAS(IntDefaultHandler);
 269:../startup/startup_mk64f12.c **** void UART5_RX_TX_DriverIRQHandler(void) ALIAS(IntDefaultHandler);
 270:../startup/startup_mk64f12.c **** void UART5_ERR_DriverIRQHandler(void) ALIAS(IntDefaultHandler);
 271:../startup/startup_mk64f12.c **** void CMP2_DriverIRQHandler(void) ALIAS(IntDefaultHandler);
 272:../startup/startup_mk64f12.c **** void FTM3_DriverIRQHandler(void) ALIAS(IntDefaultHandler);
 273:../startup/startup_mk64f12.c **** void DAC1_DriverIRQHandler(void) ALIAS(IntDefaultHandler);
 274:../startup/startup_mk64f12.c **** void ADC1_DriverIRQHandler(void) ALIAS(IntDefaultHandler);
 275:../startup/startup_mk64f12.c **** void I2C2_DriverIRQHandler(void) ALIAS(IntDefaultHandler);
 276:../startup/startup_mk64f12.c **** void CAN0_DriverIRQHandler(void) ALIAS(IntDefaultHandler);
 277:../startup/startup_mk64f12.c **** void SDHC_DriverIRQHandler(void) ALIAS(IntDefaultHandler);
 278:../startup/startup_mk64f12.c **** void ENET_1588_Timer_DriverIRQHandler(void) ALIAS(IntDefaultHandler);
 279:../startup/startup_mk64f12.c **** void ENET_Transmit_DriverIRQHandler(void) ALIAS(IntDefaultHandler);
 280:../startup/startup_mk64f12.c **** void ENET_Receive_DriverIRQHandler(void) ALIAS(IntDefaultHandler);
 281:../startup/startup_mk64f12.c **** void ENET_Error_DriverIRQHandler(void) ALIAS(IntDefaultHandler);
 282:../startup/startup_mk64f12.c **** 
 283:../startup/startup_mk64f12.c **** //*****************************************************************************
 284:../startup/startup_mk64f12.c **** // The entry point for the application.
 285:../startup/startup_mk64f12.c **** // __main() is the entry point for Redlib based applications
 286:../startup/startup_mk64f12.c **** // main() is the entry point for Newlib based applications
 287:../startup/startup_mk64f12.c **** //*****************************************************************************
 288:../startup/startup_mk64f12.c **** #if defined (__REDLIB__)
 289:../startup/startup_mk64f12.c **** extern void __main(void);
 290:../startup/startup_mk64f12.c **** #endif
 291:../startup/startup_mk64f12.c **** extern int main(void);
 292:../startup/startup_mk64f12.c **** 
 293:../startup/startup_mk64f12.c **** //*****************************************************************************
 294:../startup/startup_mk64f12.c **** // External declaration for the pointer to the stack top from the Linker Script
 295:../startup/startup_mk64f12.c **** //*****************************************************************************
 296:../startup/startup_mk64f12.c **** extern void _vStackTop(void);
 297:../startup/startup_mk64f12.c **** 
 298:../startup/startup_mk64f12.c **** //*****************************************************************************
 299:../startup/startup_mk64f12.c **** #if defined (__cplusplus)
 300:../startup/startup_mk64f12.c **** } // extern "C"
 301:../startup/startup_mk64f12.c **** #endif
 302:../startup/startup_mk64f12.c **** 
 303:../startup/startup_mk64f12.c **** //*****************************************************************************
 304:../startup/startup_mk64f12.c **** // The vector table.
 305:../startup/startup_mk64f12.c **** // This relies on the linker script to place at correct location in memory.
 306:../startup/startup_mk64f12.c **** //*****************************************************************************
 307:../startup/startup_mk64f12.c **** extern void (* const g_pfnVectors[])(void);
 308:../startup/startup_mk64f12.c **** extern void * __Vectors __attribute__ ((alias ("g_pfnVectors")));
 309:../startup/startup_mk64f12.c **** 
 310:../startup/startup_mk64f12.c **** __attribute__ ((used, section(".isr_vector")))
 311:../startup/startup_mk64f12.c **** void (* const g_pfnVectors[])(void) = {
 312:../startup/startup_mk64f12.c ****     // Core Level - CM4
 313:../startup/startup_mk64f12.c ****     &_vStackTop,                       // The initial stack pointer
 314:../startup/startup_mk64f12.c ****     ResetISR,                          // The reset handler
 315:../startup/startup_mk64f12.c ****     NMI_Handler,                       // The NMI handler
 316:../startup/startup_mk64f12.c ****     HardFault_Handler,                 // The hard fault handler
 317:../startup/startup_mk64f12.c ****     MemManage_Handler,                 // The MPU fault handler
 318:../startup/startup_mk64f12.c ****     BusFault_Handler,                  // The bus fault handler
 319:../startup/startup_mk64f12.c ****     UsageFault_Handler,                // The usage fault handler
 320:../startup/startup_mk64f12.c ****     0,                                 // Reserved
 321:../startup/startup_mk64f12.c ****     0,                                 // Reserved
 322:../startup/startup_mk64f12.c ****     0,                                 // Reserved
 323:../startup/startup_mk64f12.c ****     0,                                 // Reserved
 324:../startup/startup_mk64f12.c ****     SVC_Handler,                       // SVCall handler
 325:../startup/startup_mk64f12.c ****     DebugMon_Handler,                  // Debug monitor handler
 326:../startup/startup_mk64f12.c ****     0,                                 // Reserved
 327:../startup/startup_mk64f12.c ****     PendSV_Handler,                    // The PendSV handler
 328:../startup/startup_mk64f12.c ****     SysTick_Handler,                   // The SysTick handler
 329:../startup/startup_mk64f12.c **** 
 330:../startup/startup_mk64f12.c ****     // Chip Level - MK64F12
 331:../startup/startup_mk64f12.c ****     DMA0_IRQHandler,                      // 16 : DMA Channel 0 Transfer Complete
 332:../startup/startup_mk64f12.c ****     DMA1_IRQHandler,                      // 17 : DMA Channel 1 Transfer Complete
 333:../startup/startup_mk64f12.c ****     DMA2_IRQHandler,                      // 18 : DMA Channel 2 Transfer Complete
 334:../startup/startup_mk64f12.c ****     DMA3_IRQHandler,                      // 19 : DMA Channel 3 Transfer Complete
 335:../startup/startup_mk64f12.c ****     DMA4_IRQHandler,                      // 20 : DMA Channel 4 Transfer Complete
 336:../startup/startup_mk64f12.c ****     DMA5_IRQHandler,                      // 21 : DMA Channel 5 Transfer Complete
 337:../startup/startup_mk64f12.c ****     DMA6_IRQHandler,                      // 22 : DMA Channel 6 Transfer Complete
 338:../startup/startup_mk64f12.c ****     DMA7_IRQHandler,                      // 23 : DMA Channel 7 Transfer Complete
 339:../startup/startup_mk64f12.c ****     DMA8_IRQHandler,                      // 24 : DMA Channel 8 Transfer Complete
 340:../startup/startup_mk64f12.c ****     DMA9_IRQHandler,                      // 25 : DMA Channel 9 Transfer Complete
 341:../startup/startup_mk64f12.c ****     DMA10_IRQHandler,                     // 26 : DMA Channel 10 Transfer Complete
 342:../startup/startup_mk64f12.c ****     DMA11_IRQHandler,                     // 27 : DMA Channel 11 Transfer Complete
 343:../startup/startup_mk64f12.c ****     DMA12_IRQHandler,                     // 28 : DMA Channel 12 Transfer Complete
 344:../startup/startup_mk64f12.c ****     DMA13_IRQHandler,                     // 29 : DMA Channel 13 Transfer Complete
 345:../startup/startup_mk64f12.c ****     DMA14_IRQHandler,                     // 30 : DMA Channel 14 Transfer Complete
 346:../startup/startup_mk64f12.c ****     DMA15_IRQHandler,                     // 31 : DMA Channel 15 Transfer Complete
 347:../startup/startup_mk64f12.c ****     DMA_Error_IRQHandler,                 // 32 : DMA Error Interrupt
 348:../startup/startup_mk64f12.c ****     MCM_IRQHandler,                       // 33 : Normal Interrupt
 349:../startup/startup_mk64f12.c ****     FTFE_IRQHandler,                      // 34 : FTFE Command complete interrupt
 350:../startup/startup_mk64f12.c ****     Read_Collision_IRQHandler,            // 35 : Read Collision Interrupt
 351:../startup/startup_mk64f12.c ****     LVD_LVW_IRQHandler,                   // 36 : Low Voltage Detect, Low Voltage Warning
 352:../startup/startup_mk64f12.c ****     LLWU_IRQHandler,                      // 37 : Low Leakage Wakeup Unit
 353:../startup/startup_mk64f12.c ****     WDOG_EWM_IRQHandler,                  // 38 : WDOG Interrupt
 354:../startup/startup_mk64f12.c ****     RNG_IRQHandler,                       // 39 : RNG Interrupt
 355:../startup/startup_mk64f12.c ****     I2C0_IRQHandler,                      // 40 : I2C0 interrupt
 356:../startup/startup_mk64f12.c ****     I2C1_IRQHandler,                      // 41 : I2C1 interrupt
 357:../startup/startup_mk64f12.c ****     SPI0_IRQHandler,                      // 42 : SPI0 Interrupt
 358:../startup/startup_mk64f12.c ****     SPI1_IRQHandler,                      // 43 : SPI1 Interrupt
 359:../startup/startup_mk64f12.c ****     I2S0_Tx_IRQHandler,                   // 44 : I2S0 transmit interrupt
 360:../startup/startup_mk64f12.c ****     I2S0_Rx_IRQHandler,                   // 45 : I2S0 receive interrupt
 361:../startup/startup_mk64f12.c ****     UART0_LON_IRQHandler,                 // 46 : UART0 LON interrupt
 362:../startup/startup_mk64f12.c ****     UART0_RX_TX_IRQHandler,               // 47 : UART0 Receive/Transmit interrupt
 363:../startup/startup_mk64f12.c ****     UART0_ERR_IRQHandler,                 // 48 : UART0 Error interrupt
 364:../startup/startup_mk64f12.c ****     UART1_RX_TX_IRQHandler,               // 49 : UART1 Receive/Transmit interrupt
 365:../startup/startup_mk64f12.c ****     UART1_ERR_IRQHandler,                 // 50 : UART1 Error interrupt
 366:../startup/startup_mk64f12.c ****     UART2_RX_TX_IRQHandler,               // 51 : UART2 Receive/Transmit interrupt
 367:../startup/startup_mk64f12.c ****     UART2_ERR_IRQHandler,                 // 52 : UART2 Error interrupt
 368:../startup/startup_mk64f12.c ****     UART3_RX_TX_IRQHandler,               // 53 : UART3 Receive/Transmit interrupt
 369:../startup/startup_mk64f12.c ****     UART3_ERR_IRQHandler,                 // 54 : UART3 Error interrupt
 370:../startup/startup_mk64f12.c ****     ADC0_IRQHandler,                      // 55 : ADC0 interrupt
 371:../startup/startup_mk64f12.c ****     CMP0_IRQHandler,                      // 56 : CMP0 interrupt
 372:../startup/startup_mk64f12.c ****     CMP1_IRQHandler,                      // 57 : CMP1 interrupt
 373:../startup/startup_mk64f12.c ****     FTM0_IRQHandler,                      // 58 : FTM0 fault, overflow and channels interrupt
 374:../startup/startup_mk64f12.c ****     FTM1_IRQHandler,                      // 59 : FTM1 fault, overflow and channels interrupt
 375:../startup/startup_mk64f12.c ****     FTM2_IRQHandler,                      // 60 : FTM2 fault, overflow and channels interrupt
 376:../startup/startup_mk64f12.c ****     CMT_IRQHandler,                       // 61 : CMT interrupt
 377:../startup/startup_mk64f12.c ****     RTC_IRQHandler,                       // 62 : RTC interrupt
 378:../startup/startup_mk64f12.c ****     RTC_Seconds_IRQHandler,               // 63 : RTC seconds interrupt
 379:../startup/startup_mk64f12.c ****     PIT0_IRQHandler,                      // 64 : PIT timer channel 0 interrupt
 380:../startup/startup_mk64f12.c ****     PIT1_IRQHandler,                      // 65 : PIT timer channel 1 interrupt
 381:../startup/startup_mk64f12.c ****     PIT2_IRQHandler,                      // 66 : PIT timer channel 2 interrupt
 382:../startup/startup_mk64f12.c ****     PIT3_IRQHandler,                      // 67 : PIT timer channel 3 interrupt
 383:../startup/startup_mk64f12.c ****     PDB0_IRQHandler,                      // 68 : PDB0 Interrupt
 384:../startup/startup_mk64f12.c ****     USB0_IRQHandler,                      // 69 : USB0 interrupt
 385:../startup/startup_mk64f12.c ****     USBDCD_IRQHandler,                    // 70 : USBDCD Interrupt
 386:../startup/startup_mk64f12.c ****     Reserved71_IRQHandler,                // 71 : Reserved interrupt
 387:../startup/startup_mk64f12.c ****     DAC0_IRQHandler,                      // 72 : DAC0 interrupt
 388:../startup/startup_mk64f12.c ****     MCG_IRQHandler,                       // 73 : MCG Interrupt
 389:../startup/startup_mk64f12.c ****     LPTMR0_IRQHandler,                    // 74 : LPTimer interrupt
 390:../startup/startup_mk64f12.c ****     PORTA_IRQHandler,                     // 75 : Port A interrupt
 391:../startup/startup_mk64f12.c ****     PORTB_IRQHandler,                     // 76 : Port B interrupt
 392:../startup/startup_mk64f12.c ****     PORTC_IRQHandler,                     // 77 : Port C interrupt
 393:../startup/startup_mk64f12.c ****     PORTD_IRQHandler,                     // 78 : Port D interrupt
 394:../startup/startup_mk64f12.c ****     PORTE_IRQHandler,                     // 79 : Port E interrupt
 395:../startup/startup_mk64f12.c ****     SWI_IRQHandler,                       // 80 : Software interrupt
 396:../startup/startup_mk64f12.c ****     SPI2_IRQHandler,                      // 81 : SPI2 Interrupt
 397:../startup/startup_mk64f12.c ****     UART4_RX_TX_IRQHandler,               // 82 : UART4 Receive/Transmit interrupt
 398:../startup/startup_mk64f12.c ****     UART4_ERR_IRQHandler,                 // 83 : UART4 Error interrupt
 399:../startup/startup_mk64f12.c ****     UART5_RX_TX_IRQHandler,               // 84 : UART5 Receive/Transmit interrupt
 400:../startup/startup_mk64f12.c ****     UART5_ERR_IRQHandler,                 // 85 : UART5 Error interrupt
 401:../startup/startup_mk64f12.c ****     CMP2_IRQHandler,                      // 86 : CMP2 interrupt
 402:../startup/startup_mk64f12.c ****     FTM3_IRQHandler,                      // 87 : FTM3 fault, overflow and channels interrupt
 403:../startup/startup_mk64f12.c ****     DAC1_IRQHandler,                      // 88 : DAC1 interrupt
 404:../startup/startup_mk64f12.c ****     ADC1_IRQHandler,                      // 89 : ADC1 interrupt
 405:../startup/startup_mk64f12.c ****     I2C2_IRQHandler,                      // 90 : I2C2 interrupt
 406:../startup/startup_mk64f12.c ****     CAN0_ORed_Message_buffer_IRQHandler,  // 91 : CAN0 OR'd message buffers interrupt
 407:../startup/startup_mk64f12.c ****     CAN0_Bus_Off_IRQHandler,              // 92 : CAN0 bus off interrupt
 408:../startup/startup_mk64f12.c ****     CAN0_Error_IRQHandler,                // 93 : CAN0 error interrupt
 409:../startup/startup_mk64f12.c ****     CAN0_Tx_Warning_IRQHandler,           // 94 : CAN0 Tx warning interrupt
 410:../startup/startup_mk64f12.c ****     CAN0_Rx_Warning_IRQHandler,           // 95 : CAN0 Rx warning interrupt
 411:../startup/startup_mk64f12.c ****     CAN0_Wake_Up_IRQHandler,              // 96 : CAN0 wake up interrupt
 412:../startup/startup_mk64f12.c ****     SDHC_IRQHandler,                      // 97 : SDHC interrupt
 413:../startup/startup_mk64f12.c ****     ENET_1588_Timer_IRQHandler,           // 98 : Ethernet MAC IEEE 1588 Timer Interrupt
 414:../startup/startup_mk64f12.c ****     ENET_Transmit_IRQHandler,             // 99 : Ethernet MAC Transmit Interrupt
 415:../startup/startup_mk64f12.c ****     ENET_Receive_IRQHandler,              // 100: Ethernet MAC Receive Interrupt
 416:../startup/startup_mk64f12.c ****     ENET_Error_IRQHandler,                // 101: Ethernet MAC Error and miscelaneous Interrupt
 417:../startup/startup_mk64f12.c **** }; /* End of g_pfnVectors */
 418:../startup/startup_mk64f12.c **** 
 419:../startup/startup_mk64f12.c **** //*****************************************************************************
 420:../startup/startup_mk64f12.c **** // Functions to carry out the initialization of RW and BSS data sections. These
 421:../startup/startup_mk64f12.c **** // are written as separate functions rather than being inlined within the
 422:../startup/startup_mk64f12.c **** // ResetISR() function in order to cope with MCUs with multiple banks of
 423:../startup/startup_mk64f12.c **** // memory.
 424:../startup/startup_mk64f12.c **** //*****************************************************************************
 425:../startup/startup_mk64f12.c **** __attribute__ ((section(".after_vectors.init_data")))
 426:../startup/startup_mk64f12.c **** void data_init(unsigned int romstart, unsigned int start, unsigned int len) {
 148              		.loc 1 426 0
 149              		.cfi_startproc
 150              		@ args = 0, pretend = 0, frame = 0
 151              		@ frame_needed = 0, uses_anonymous_args = 0
 152              		@ link register save eliminated.
 427:../startup/startup_mk64f12.c **** 	unsigned int *pulDest = (unsigned int*) start;
 428:../startup/startup_mk64f12.c **** 	unsigned int *pulSrc = (unsigned int*) romstart;
 429:../startup/startup_mk64f12.c **** 	unsigned int loop;
 430:../startup/startup_mk64f12.c **** 	for (loop = 0; loop < len; loop = loop + 4)
 153              		.loc 1 430 0
 154 0000 0023     		movs	r3, #0
 155 0002 9342     		cmp	r3, r2
 156 0004 0AD2     		bcs	.L7
 426:../startup/startup_mk64f12.c **** 	unsigned int *pulDest = (unsigned int*) start;
 157              		.loc 1 426 0
 158 0006 10B4     		push	{r4}
 159              		.cfi_def_cfa_offset 4
 160              		.cfi_offset 4, -4
 161              	.L3:
 431:../startup/startup_mk64f12.c **** 		*pulDest++ = *pulSrc++;
 162              		.loc 1 431 0 discriminator 3
 163 0008 0468     		ldr	r4, [r0]
 164 000a 0C60     		str	r4, [r1]
 430:../startup/startup_mk64f12.c **** 		*pulDest++ = *pulSrc++;
 165              		.loc 1 430 0 discriminator 3
 166 000c 0433     		adds	r3, r3, #4
 167              		.loc 1 431 0 discriminator 3
 168 000e 0430     		adds	r0, r0, #4
 169 0010 0431     		adds	r1, r1, #4
 430:../startup/startup_mk64f12.c **** 		*pulDest++ = *pulSrc++;
 170              		.loc 1 430 0 discriminator 3
 171 0012 9342     		cmp	r3, r2
 172 0014 F8D3     		bcc	.L3
 432:../startup/startup_mk64f12.c **** }
 173              		.loc 1 432 0
 174 0016 5DF8044B 		ldr	r4, [sp], #4
 175              		.cfi_restore 4
 176              		.cfi_def_cfa_offset 0
 177 001a 7047     		bx	lr
 178              	.L7:
 179 001c 7047     		bx	lr
 180              		.cfi_endproc
 181              	.LFE0:
 183              		.section	.after_vectors.init_bss,"ax",%progbits
 184              		.align	1
 185              		.global	bss_init
 186              		.syntax unified
 187              		.thumb
 188              		.thumb_func
 189              		.fpu fpv4-sp-d16
 191              	bss_init:
 192              	.LFB1:
 433:../startup/startup_mk64f12.c **** 
 434:../startup/startup_mk64f12.c **** __attribute__ ((section(".after_vectors.init_bss")))
 435:../startup/startup_mk64f12.c **** void bss_init(unsigned int start, unsigned int len) {
 193              		.loc 1 435 0
 194              		.cfi_startproc
 195              		@ args = 0, pretend = 0, frame = 0
 196              		@ frame_needed = 0, uses_anonymous_args = 0
 197              		@ link register save eliminated.
 436:../startup/startup_mk64f12.c **** 	unsigned int *pulDest = (unsigned int*) start;
 437:../startup/startup_mk64f12.c **** 	unsigned int loop;
 438:../startup/startup_mk64f12.c **** 	for (loop = 0; loop < len; loop = loop + 4)
 198              		.loc 1 438 0
 199 0000 0023     		movs	r3, #0
 200 0002 03E0     		b	.L9
 201              	.L10:
 439:../startup/startup_mk64f12.c **** 		*pulDest++ = 0;
 202              		.loc 1 439 0 discriminator 3
 203 0004 0022     		movs	r2, #0
 204 0006 0260     		str	r2, [r0]
 438:../startup/startup_mk64f12.c **** 		*pulDest++ = 0;
 205              		.loc 1 438 0 discriminator 3
 206 0008 0433     		adds	r3, r3, #4
 207              		.loc 1 439 0 discriminator 3
 208 000a 0430     		adds	r0, r0, #4
 209              	.L9:
 438:../startup/startup_mk64f12.c **** 		*pulDest++ = 0;
 210              		.loc 1 438 0 discriminator 1
 211 000c 8B42     		cmp	r3, r1
 212 000e F9D3     		bcc	.L10
 440:../startup/startup_mk64f12.c **** }
 213              		.loc 1 440 0
 214 0010 7047     		bx	lr
 215              		.cfi_endproc
 216              	.LFE1:
 218              		.section	.after_vectors.reset,"ax",%progbits
 219              		.align	1
 220              		.global	ResetISR
 221              		.syntax unified
 222              		.thumb
 223              		.thumb_func
 224              		.fpu fpv4-sp-d16
 226              	ResetISR:
 227              	.LFB2:
 441:../startup/startup_mk64f12.c **** 
 442:../startup/startup_mk64f12.c **** //*****************************************************************************
 443:../startup/startup_mk64f12.c **** // The following symbols are constructs generated by the linker, indicating
 444:../startup/startup_mk64f12.c **** // the location of various points in the "Global Section Table". This table is
 445:../startup/startup_mk64f12.c **** // created by the linker via the Code Red managed linker script mechanism. It
 446:../startup/startup_mk64f12.c **** // contains the load address, execution address and length of each RW data
 447:../startup/startup_mk64f12.c **** // section and the execution and length of each BSS (zero initialized) section.
 448:../startup/startup_mk64f12.c **** //*****************************************************************************
 449:../startup/startup_mk64f12.c **** extern unsigned int __data_section_table;
 450:../startup/startup_mk64f12.c **** extern unsigned int __data_section_table_end;
 451:../startup/startup_mk64f12.c **** extern unsigned int __bss_section_table;
 452:../startup/startup_mk64f12.c **** extern unsigned int __bss_section_table_end;
 453:../startup/startup_mk64f12.c **** 
 454:../startup/startup_mk64f12.c **** //*****************************************************************************
 455:../startup/startup_mk64f12.c **** // Reset entry point for your code.
 456:../startup/startup_mk64f12.c **** // Sets up a simple runtime environment and initializes the C/C++
 457:../startup/startup_mk64f12.c **** // library.
 458:../startup/startup_mk64f12.c **** //*****************************************************************************
 459:../startup/startup_mk64f12.c **** __attribute__ ((section(".after_vectors.reset")))
 460:../startup/startup_mk64f12.c **** void ResetISR(void) {
 228              		.loc 1 460 0
 229              		.cfi_startproc
 230              		@ args = 0, pretend = 0, frame = 0
 231              		@ frame_needed = 0, uses_anonymous_args = 0
 232 0000 10B5     		push	{r4, lr}
 233              		.cfi_def_cfa_offset 8
 234              		.cfi_offset 4, -8
 235              		.cfi_offset 14, -4
 461:../startup/startup_mk64f12.c **** 
 462:../startup/startup_mk64f12.c ****     // Disable interrupts
 463:../startup/startup_mk64f12.c ****     __asm volatile ("cpsid i");
 236              		.loc 1 463 0
 237              		.syntax unified
 238              	@ 463 "../startup/startup_mk64f12.c" 1
 239 0002 72B6     		cpsid i
 240              	@ 0 "" 2
 464:../startup/startup_mk64f12.c **** 
 465:../startup/startup_mk64f12.c **** #if defined (__USE_CMSIS)
 466:../startup/startup_mk64f12.c **** // If __USE_CMSIS defined, then call CMSIS SystemInit code
 467:../startup/startup_mk64f12.c ****     SystemInit();
 241              		.loc 1 467 0
 242              		.thumb
 243              		.syntax unified
 244 0004 FFF7FEFF 		bl	SystemInit
 468:../startup/startup_mk64f12.c **** #else
 469:../startup/startup_mk64f12.c ****     // Disable Watchdog
 470:../startup/startup_mk64f12.c ****     //  Write 0xC520 to watchdog unlock register
 471:../startup/startup_mk64f12.c ****     *((volatile unsigned short *)0x4005200E) = 0xC520;
 472:../startup/startup_mk64f12.c ****     //  Followed by 0xD928 to complete the unlock
 473:../startup/startup_mk64f12.c ****     *((volatile unsigned short *)0x4005200E) = 0xD928;
 474:../startup/startup_mk64f12.c ****     // Now disable watchdog via STCTRLH register
 475:../startup/startup_mk64f12.c ****     *((volatile unsigned short *)0x40052000) = 0x01D2u;
 476:../startup/startup_mk64f12.c **** #endif // (__USE_CMSIS)
 477:../startup/startup_mk64f12.c **** 
 478:../startup/startup_mk64f12.c ****     //
 479:../startup/startup_mk64f12.c ****     // Copy the data sections from flash to SRAM.
 480:../startup/startup_mk64f12.c ****     //
 481:../startup/startup_mk64f12.c **** 	unsigned int LoadAddr, ExeAddr, SectionLen;
 482:../startup/startup_mk64f12.c **** 	unsigned int *SectionTableAddr;
 483:../startup/startup_mk64f12.c **** 
 484:../startup/startup_mk64f12.c **** 	// Load base address of Global Section Table
 485:../startup/startup_mk64f12.c **** 	SectionTableAddr = &__data_section_table;
 245              		.loc 1 485 0
 246 0008 0D4B     		ldr	r3, .L18
 486:../startup/startup_mk64f12.c **** 
 487:../startup/startup_mk64f12.c ****     // Copy the data sections from flash to SRAM.
 488:../startup/startup_mk64f12.c **** 	while (SectionTableAddr < &__data_section_table_end) {
 247              		.loc 1 488 0
 248 000a 07E0     		b	.L12
 249              	.L13:
 489:../startup/startup_mk64f12.c **** 		LoadAddr = *SectionTableAddr++;
 490:../startup/startup_mk64f12.c **** 		ExeAddr = *SectionTableAddr++;
 491:../startup/startup_mk64f12.c **** 		SectionLen = *SectionTableAddr++;
 250              		.loc 1 491 0
 251 000c 03F10C04 		add	r4, r3, #12
 492:../startup/startup_mk64f12.c **** 		data_init(LoadAddr, ExeAddr, SectionLen);
 252              		.loc 1 492 0
 253 0010 9A68     		ldr	r2, [r3, #8]
 254 0012 5968     		ldr	r1, [r3, #4]
 255 0014 1868     		ldr	r0, [r3]
 256 0016 FFF7FEFF 		bl	data_init
 491:../startup/startup_mk64f12.c **** 		data_init(LoadAddr, ExeAddr, SectionLen);
 257              		.loc 1 491 0
 258 001a 2346     		mov	r3, r4
 259              	.L12:
 488:../startup/startup_mk64f12.c **** 		LoadAddr = *SectionTableAddr++;
 260              		.loc 1 488 0
 261 001c 094A     		ldr	r2, .L18+4
 262 001e 9342     		cmp	r3, r2
 263 0020 F4D3     		bcc	.L13
 264 0022 06E0     		b	.L14
 265              	.L15:
 493:../startup/startup_mk64f12.c **** 	}
 494:../startup/startup_mk64f12.c **** 
 495:../startup/startup_mk64f12.c **** 	// At this point, SectionTableAddr = &__bss_section_table;
 496:../startup/startup_mk64f12.c **** 	// Zero fill the bss segment
 497:../startup/startup_mk64f12.c **** 	while (SectionTableAddr < &__bss_section_table_end) {
 498:../startup/startup_mk64f12.c **** 		ExeAddr = *SectionTableAddr++;
 266              		.loc 1 498 0
 267 0024 1C46     		mov	r4, r3
 499:../startup/startup_mk64f12.c **** 		SectionLen = *SectionTableAddr++;
 500:../startup/startup_mk64f12.c **** 		bss_init(ExeAddr, SectionLen);
 268              		.loc 1 500 0
 269 0026 5968     		ldr	r1, [r3, #4]
 270 0028 54F8080B 		ldr	r0, [r4], #8
 271 002c FFF7FEFF 		bl	bss_init
 499:../startup/startup_mk64f12.c **** 		SectionLen = *SectionTableAddr++;
 272              		.loc 1 499 0
 273 0030 2346     		mov	r3, r4
 274              	.L14:
 497:../startup/startup_mk64f12.c **** 		ExeAddr = *SectionTableAddr++;
 275              		.loc 1 497 0
 276 0032 054A     		ldr	r2, .L18+8
 277 0034 9342     		cmp	r3, r2
 278 0036 F5D3     		bcc	.L15
 501:../startup/startup_mk64f12.c **** 	}
 502:../startup/startup_mk64f12.c **** 
 503:../startup/startup_mk64f12.c **** #if !defined (__USE_CMSIS)
 504:../startup/startup_mk64f12.c **** // Assume that if __USE_CMSIS defined, then CMSIS SystemInit code
 505:../startup/startup_mk64f12.c **** // will enable the FPU
 506:../startup/startup_mk64f12.c **** #if defined (__VFP_FP__) && !defined (__SOFTFP__)
 507:../startup/startup_mk64f12.c ****     //
 508:../startup/startup_mk64f12.c ****     // Code to enable the Cortex-M4 FPU only included
 509:../startup/startup_mk64f12.c ****     // if appropriate build options have been selected.
 510:../startup/startup_mk64f12.c ****     // Code taken from Section 7.1, Cortex-M4 TRM (DDI0439C)
 511:../startup/startup_mk64f12.c ****     //
 512:../startup/startup_mk64f12.c ****     // Read CPACR (located at address 0xE000ED88)
 513:../startup/startup_mk64f12.c ****     // Set bits 20-23 to enable CP10 and CP11 coprocessors
 514:../startup/startup_mk64f12.c ****     // Write back the modified value to the CPACR
 515:../startup/startup_mk64f12.c **** 	asm volatile ("LDR.W R0, =0xE000ED88\n\t"
 516:../startup/startup_mk64f12.c ****                   "LDR R1, [R0]\n\t"
 517:../startup/startup_mk64f12.c ****                   "ORR R1, R1, #(0xF << 20)\n\t"
 518:../startup/startup_mk64f12.c ****                   "STR R1, [R0]");
 519:../startup/startup_mk64f12.c **** #endif // (__VFP_FP__) && !(__SOFTFP__)
 520:../startup/startup_mk64f12.c **** #endif // (__USE_CMSIS)
 521:../startup/startup_mk64f12.c **** 
 522:../startup/startup_mk64f12.c **** #if !defined (__USE_CMSIS)
 523:../startup/startup_mk64f12.c **** // Assume that if __USE_CMSIS defined, then CMSIS SystemInit code
 524:../startup/startup_mk64f12.c **** // will setup the VTOR register
 525:../startup/startup_mk64f12.c **** 
 526:../startup/startup_mk64f12.c ****     // Check to see if we are running the code from a non-zero
 527:../startup/startup_mk64f12.c ****     // address (eg RAM, external flash), in which case we need
 528:../startup/startup_mk64f12.c ****     // to modify the VTOR register to tell the CPU that the
 529:../startup/startup_mk64f12.c ****     // vector table is located at a non-0x0 address.
 530:../startup/startup_mk64f12.c ****     unsigned int * pSCB_VTOR = (unsigned int *) 0xE000ED08;
 531:../startup/startup_mk64f12.c ****     if ((unsigned int *)g_pfnVectors!=(unsigned int *) 0x00000000) {
 532:../startup/startup_mk64f12.c ****         *pSCB_VTOR = (unsigned int)g_pfnVectors;
 533:../startup/startup_mk64f12.c ****     }
 534:../startup/startup_mk64f12.c **** #endif // (__USE_CMSIS)
 535:../startup/startup_mk64f12.c **** 
 536:../startup/startup_mk64f12.c **** #if defined (__cplusplus)
 537:../startup/startup_mk64f12.c ****     //
 538:../startup/startup_mk64f12.c ****     // Call C++ library initialisation
 539:../startup/startup_mk64f12.c ****     //
 540:../startup/startup_mk64f12.c ****     __libc_init_array();
 541:../startup/startup_mk64f12.c **** #endif
 542:../startup/startup_mk64f12.c **** 
 543:../startup/startup_mk64f12.c ****     // Reenable interrupts
 544:../startup/startup_mk64f12.c ****     __asm volatile ("cpsie i");
 279              		.loc 1 544 0
 280              		.syntax unified
 281              	@ 544 "../startup/startup_mk64f12.c" 1
 282 0038 62B6     		cpsie i
 283              	@ 0 "" 2
 545:../startup/startup_mk64f12.c **** 
 546:../startup/startup_mk64f12.c **** #if defined (__REDLIB__)
 547:../startup/startup_mk64f12.c **** 	// Call the Redlib library, which in turn calls main()
 548:../startup/startup_mk64f12.c **** 	__main();
 284              		.loc 1 548 0
 285              		.thumb
 286              		.syntax unified
 287 003a FFF7FEFF 		bl	__main
 288              	.L16:
 289 003e FEE7     		b	.L16
 290              	.L19:
 291              		.align	2
 292              	.L18:
 293 0040 00000000 		.word	__data_section_table
 294 0044 00000000 		.word	__data_section_table_end
 295 0048 00000000 		.word	__bss_section_table_end
 296              		.cfi_endproc
 297              	.LFE2:
 299              		.section	.after_vectors,"ax",%progbits
 300              		.align	1
 301              		.weak	NMI_Handler
 302              		.syntax unified
 303              		.thumb
 304              		.thumb_func
 305              		.fpu fpv4-sp-d16
 307              	NMI_Handler:
 308              	.LFB3:
 549:../startup/startup_mk64f12.c **** #else
 550:../startup/startup_mk64f12.c **** 	main();
 551:../startup/startup_mk64f12.c **** #endif
 552:../startup/startup_mk64f12.c **** 
 553:../startup/startup_mk64f12.c **** 	//
 554:../startup/startup_mk64f12.c **** 	// main() shouldn't return, but if it does, we'll just enter an infinite loop
 555:../startup/startup_mk64f12.c **** 	//
 556:../startup/startup_mk64f12.c **** 	while (1) {
 557:../startup/startup_mk64f12.c **** 		;
 558:../startup/startup_mk64f12.c **** 	}
 559:../startup/startup_mk64f12.c **** }
 560:../startup/startup_mk64f12.c **** 
 561:../startup/startup_mk64f12.c **** //*****************************************************************************
 562:../startup/startup_mk64f12.c **** // Default core exception handlers. Override the ones here by defining your own
 563:../startup/startup_mk64f12.c **** // handler routines in your application code.
 564:../startup/startup_mk64f12.c **** //*****************************************************************************
 565:../startup/startup_mk64f12.c **** WEAK_AV void NMI_Handler(void)
 566:../startup/startup_mk64f12.c **** { while(1) {}
 309              		.loc 1 566 0
 310              		.cfi_startproc
 311              		@ args = 0, pretend = 0, frame = 0
 312              		@ frame_needed = 0, uses_anonymous_args = 0
 313              		@ link register save eliminated.
 314              	.L21:
 315 0000 FEE7     		b	.L21
 316              		.cfi_endproc
 317              	.LFE3:
 319              		.align	1
 320              		.weak	HardFault_Handler
 321              		.syntax unified
 322              		.thumb
 323              		.thumb_func
 324              		.fpu fpv4-sp-d16
 326              	HardFault_Handler:
 327              	.LFB4:
 567:../startup/startup_mk64f12.c **** }
 568:../startup/startup_mk64f12.c **** 
 569:../startup/startup_mk64f12.c **** WEAK_AV void HardFault_Handler(void)
 570:../startup/startup_mk64f12.c **** { while(1) {}
 328              		.loc 1 570 0
 329              		.cfi_startproc
 330              		@ args = 0, pretend = 0, frame = 0
 331              		@ frame_needed = 0, uses_anonymous_args = 0
 332              		@ link register save eliminated.
 333              	.L23:
 334 0002 FEE7     		b	.L23
 335              		.cfi_endproc
 336              	.LFE4:
 338              		.align	1
 339              		.weak	MemManage_Handler
 340              		.syntax unified
 341              		.thumb
 342              		.thumb_func
 343              		.fpu fpv4-sp-d16
 345              	MemManage_Handler:
 346              	.LFB5:
 571:../startup/startup_mk64f12.c **** }
 572:../startup/startup_mk64f12.c **** 
 573:../startup/startup_mk64f12.c **** WEAK_AV void MemManage_Handler(void)
 574:../startup/startup_mk64f12.c **** { while(1) {}
 347              		.loc 1 574 0
 348              		.cfi_startproc
 349              		@ args = 0, pretend = 0, frame = 0
 350              		@ frame_needed = 0, uses_anonymous_args = 0
 351              		@ link register save eliminated.
 352              	.L25:
 353 0004 FEE7     		b	.L25
 354              		.cfi_endproc
 355              	.LFE5:
 357              		.align	1
 358              		.weak	BusFault_Handler
 359              		.syntax unified
 360              		.thumb
 361              		.thumb_func
 362              		.fpu fpv4-sp-d16
 364              	BusFault_Handler:
 365              	.LFB6:
 575:../startup/startup_mk64f12.c **** }
 576:../startup/startup_mk64f12.c **** 
 577:../startup/startup_mk64f12.c **** WEAK_AV void BusFault_Handler(void)
 578:../startup/startup_mk64f12.c **** { while(1) {}
 366              		.loc 1 578 0
 367              		.cfi_startproc
 368              		@ args = 0, pretend = 0, frame = 0
 369              		@ frame_needed = 0, uses_anonymous_args = 0
 370              		@ link register save eliminated.
 371              	.L27:
 372 0006 FEE7     		b	.L27
 373              		.cfi_endproc
 374              	.LFE6:
 376              		.align	1
 377              		.weak	UsageFault_Handler
 378              		.syntax unified
 379              		.thumb
 380              		.thumb_func
 381              		.fpu fpv4-sp-d16
 383              	UsageFault_Handler:
 384              	.LFB7:
 579:../startup/startup_mk64f12.c **** }
 580:../startup/startup_mk64f12.c **** 
 581:../startup/startup_mk64f12.c **** WEAK_AV void UsageFault_Handler(void)
 582:../startup/startup_mk64f12.c **** { while(1) {}
 385              		.loc 1 582 0
 386              		.cfi_startproc
 387              		@ args = 0, pretend = 0, frame = 0
 388              		@ frame_needed = 0, uses_anonymous_args = 0
 389              		@ link register save eliminated.
 390              	.L29:
 391 0008 FEE7     		b	.L29
 392              		.cfi_endproc
 393              	.LFE7:
 395              		.align	1
 396              		.weak	SVC_Handler
 397              		.syntax unified
 398              		.thumb
 399              		.thumb_func
 400              		.fpu fpv4-sp-d16
 402              	SVC_Handler:
 403              	.LFB8:
 583:../startup/startup_mk64f12.c **** }
 584:../startup/startup_mk64f12.c **** 
 585:../startup/startup_mk64f12.c **** WEAK_AV void SVC_Handler(void)
 586:../startup/startup_mk64f12.c **** { while(1) {}
 404              		.loc 1 586 0
 405              		.cfi_startproc
 406              		@ args = 0, pretend = 0, frame = 0
 407              		@ frame_needed = 0, uses_anonymous_args = 0
 408              		@ link register save eliminated.
 409              	.L31:
 410 000a FEE7     		b	.L31
 411              		.cfi_endproc
 412              	.LFE8:
 414              		.align	1
 415              		.weak	DebugMon_Handler
 416              		.syntax unified
 417              		.thumb
 418              		.thumb_func
 419              		.fpu fpv4-sp-d16
 421              	DebugMon_Handler:
 422              	.LFB9:
 587:../startup/startup_mk64f12.c **** }
 588:../startup/startup_mk64f12.c **** 
 589:../startup/startup_mk64f12.c **** WEAK_AV void DebugMon_Handler(void)
 590:../startup/startup_mk64f12.c **** { while(1) {}
 423              		.loc 1 590 0
 424              		.cfi_startproc
 425              		@ args = 0, pretend = 0, frame = 0
 426              		@ frame_needed = 0, uses_anonymous_args = 0
 427              		@ link register save eliminated.
 428              	.L33:
 429 000c FEE7     		b	.L33
 430              		.cfi_endproc
 431              	.LFE9:
 433              		.align	1
 434              		.weak	PendSV_Handler
 435              		.syntax unified
 436              		.thumb
 437              		.thumb_func
 438              		.fpu fpv4-sp-d16
 440              	PendSV_Handler:
 441              	.LFB10:
 591:../startup/startup_mk64f12.c **** }
 592:../startup/startup_mk64f12.c **** 
 593:../startup/startup_mk64f12.c **** WEAK_AV void PendSV_Handler(void)
 594:../startup/startup_mk64f12.c **** { while(1) {}
 442              		.loc 1 594 0
 443              		.cfi_startproc
 444              		@ args = 0, pretend = 0, frame = 0
 445              		@ frame_needed = 0, uses_anonymous_args = 0
 446              		@ link register save eliminated.
 447              	.L35:
 448 000e FEE7     		b	.L35
 449              		.cfi_endproc
 450              	.LFE10:
 452              		.align	1
 453              		.weak	SysTick_Handler
 454              		.syntax unified
 455              		.thumb
 456              		.thumb_func
 457              		.fpu fpv4-sp-d16
 459              	SysTick_Handler:
 460              	.LFB11:
 595:../startup/startup_mk64f12.c **** }
 596:../startup/startup_mk64f12.c **** 
 597:../startup/startup_mk64f12.c **** WEAK_AV void SysTick_Handler(void)
 598:../startup/startup_mk64f12.c **** { while(1) {}
 461              		.loc 1 598 0
 462              		.cfi_startproc
 463              		@ args = 0, pretend = 0, frame = 0
 464              		@ frame_needed = 0, uses_anonymous_args = 0
 465              		@ link register save eliminated.
 466              	.L37:
 467 0010 FEE7     		b	.L37
 468              		.cfi_endproc
 469              	.LFE11:
 471              		.align	1
 472              		.weak	IntDefaultHandler
 473              		.syntax unified
 474              		.thumb
 475              		.thumb_func
 476              		.fpu fpv4-sp-d16
 478              	IntDefaultHandler:
 479              	.LFB12:
 599:../startup/startup_mk64f12.c **** }
 600:../startup/startup_mk64f12.c **** 
 601:../startup/startup_mk64f12.c **** //*****************************************************************************
 602:../startup/startup_mk64f12.c **** // Processor ends up here if an unexpected interrupt occurs or a specific
 603:../startup/startup_mk64f12.c **** // handler is not present in the application code.
 604:../startup/startup_mk64f12.c **** //*****************************************************************************
 605:../startup/startup_mk64f12.c **** WEAK_AV void IntDefaultHandler(void)
 606:../startup/startup_mk64f12.c **** { while(1) {}
 480              		.loc 1 606 0
 481              		.cfi_startproc
 482              		@ Volatile: function does not return.
 483              		@ args = 0, pretend = 0, frame = 0
 484              		@ frame_needed = 0, uses_anonymous_args = 0
 485              		@ link register save eliminated.
 486              	.L39:
 487 0012 FEE7     		b	.L39
 488              		.cfi_endproc
 489              	.LFE12:
 491              		.weak	ENET_Error_DriverIRQHandler
 492              		.thumb_set ENET_Error_DriverIRQHandler,IntDefaultHandler
 493              		.weak	ENET_Receive_DriverIRQHandler
 494              		.thumb_set ENET_Receive_DriverIRQHandler,IntDefaultHandler
 495              		.weak	ENET_Transmit_DriverIRQHandler
 496              		.thumb_set ENET_Transmit_DriverIRQHandler,IntDefaultHandler
 497              		.weak	ENET_1588_Timer_DriverIRQHandler
 498              		.thumb_set ENET_1588_Timer_DriverIRQHandler,IntDefaultHandler
 499              		.weak	SDHC_DriverIRQHandler
 500              		.thumb_set SDHC_DriverIRQHandler,IntDefaultHandler
 501              		.weak	CAN0_DriverIRQHandler
 502              		.thumb_set CAN0_DriverIRQHandler,IntDefaultHandler
 503              		.weak	I2C2_DriverIRQHandler
 504              		.thumb_set I2C2_DriverIRQHandler,IntDefaultHandler
 505              		.weak	ADC1_DriverIRQHandler
 506              		.thumb_set ADC1_DriverIRQHandler,IntDefaultHandler
 507              		.weak	DAC1_DriverIRQHandler
 508              		.thumb_set DAC1_DriverIRQHandler,IntDefaultHandler
 509              		.weak	FTM3_DriverIRQHandler
 510              		.thumb_set FTM3_DriverIRQHandler,IntDefaultHandler
 511              		.weak	CMP2_DriverIRQHandler
 512              		.thumb_set CMP2_DriverIRQHandler,IntDefaultHandler
 513              		.weak	UART5_ERR_DriverIRQHandler
 514              		.thumb_set UART5_ERR_DriverIRQHandler,IntDefaultHandler
 515              		.weak	UART5_RX_TX_DriverIRQHandler
 516              		.thumb_set UART5_RX_TX_DriverIRQHandler,IntDefaultHandler
 517              		.weak	UART4_ERR_DriverIRQHandler
 518              		.thumb_set UART4_ERR_DriverIRQHandler,IntDefaultHandler
 519              		.weak	UART4_RX_TX_DriverIRQHandler
 520              		.thumb_set UART4_RX_TX_DriverIRQHandler,IntDefaultHandler
 521              		.weak	SPI2_DriverIRQHandler
 522              		.thumb_set SPI2_DriverIRQHandler,IntDefaultHandler
 523              		.weak	SWI_DriverIRQHandler
 524              		.thumb_set SWI_DriverIRQHandler,IntDefaultHandler
 525              		.weak	PORTE_DriverIRQHandler
 526              		.thumb_set PORTE_DriverIRQHandler,IntDefaultHandler
 527              		.weak	PORTD_DriverIRQHandler
 528              		.thumb_set PORTD_DriverIRQHandler,IntDefaultHandler
 529              		.weak	PORTC_DriverIRQHandler
 530              		.thumb_set PORTC_DriverIRQHandler,IntDefaultHandler
 531              		.weak	PORTB_DriverIRQHandler
 532              		.thumb_set PORTB_DriverIRQHandler,IntDefaultHandler
 533              		.weak	PORTA_DriverIRQHandler
 534              		.thumb_set PORTA_DriverIRQHandler,IntDefaultHandler
 535              		.weak	LPTMR0_DriverIRQHandler
 536              		.thumb_set LPTMR0_DriverIRQHandler,IntDefaultHandler
 537              		.weak	MCG_DriverIRQHandler
 538              		.thumb_set MCG_DriverIRQHandler,IntDefaultHandler
 539              		.weak	DAC0_DriverIRQHandler
 540              		.thumb_set DAC0_DriverIRQHandler,IntDefaultHandler
 541              		.weak	Reserved71_DriverIRQHandler
 542              		.thumb_set Reserved71_DriverIRQHandler,IntDefaultHandler
 543              		.weak	USBDCD_DriverIRQHandler
 544              		.thumb_set USBDCD_DriverIRQHandler,IntDefaultHandler
 545              		.weak	USB0_DriverIRQHandler
 546              		.thumb_set USB0_DriverIRQHandler,IntDefaultHandler
 547              		.weak	PDB0_DriverIRQHandler
 548              		.thumb_set PDB0_DriverIRQHandler,IntDefaultHandler
 549              		.weak	PIT3_DriverIRQHandler
 550              		.thumb_set PIT3_DriverIRQHandler,IntDefaultHandler
 551              		.weak	PIT2_DriverIRQHandler
 552              		.thumb_set PIT2_DriverIRQHandler,IntDefaultHandler
 553              		.weak	PIT1_DriverIRQHandler
 554              		.thumb_set PIT1_DriverIRQHandler,IntDefaultHandler
 555              		.weak	PIT0_DriverIRQHandler
 556              		.thumb_set PIT0_DriverIRQHandler,IntDefaultHandler
 557              		.weak	RTC_Seconds_DriverIRQHandler
 558              		.thumb_set RTC_Seconds_DriverIRQHandler,IntDefaultHandler
 559              		.weak	RTC_DriverIRQHandler
 560              		.thumb_set RTC_DriverIRQHandler,IntDefaultHandler
 561              		.weak	CMT_DriverIRQHandler
 562              		.thumb_set CMT_DriverIRQHandler,IntDefaultHandler
 563              		.weak	FTM2_DriverIRQHandler
 564              		.thumb_set FTM2_DriverIRQHandler,IntDefaultHandler
 565              		.weak	FTM1_DriverIRQHandler
 566              		.thumb_set FTM1_DriverIRQHandler,IntDefaultHandler
 567              		.weak	FTM0_DriverIRQHandler
 568              		.thumb_set FTM0_DriverIRQHandler,IntDefaultHandler
 569              		.weak	CMP1_DriverIRQHandler
 570              		.thumb_set CMP1_DriverIRQHandler,IntDefaultHandler
 571              		.weak	CMP0_DriverIRQHandler
 572              		.thumb_set CMP0_DriverIRQHandler,IntDefaultHandler
 573              		.weak	ADC0_DriverIRQHandler
 574              		.thumb_set ADC0_DriverIRQHandler,IntDefaultHandler
 575              		.weak	UART3_ERR_DriverIRQHandler
 576              		.thumb_set UART3_ERR_DriverIRQHandler,IntDefaultHandler
 577              		.weak	UART3_RX_TX_DriverIRQHandler
 578              		.thumb_set UART3_RX_TX_DriverIRQHandler,IntDefaultHandler
 579              		.weak	UART2_ERR_DriverIRQHandler
 580              		.thumb_set UART2_ERR_DriverIRQHandler,IntDefaultHandler
 581              		.weak	UART2_RX_TX_DriverIRQHandler
 582              		.thumb_set UART2_RX_TX_DriverIRQHandler,IntDefaultHandler
 583              		.weak	UART1_ERR_DriverIRQHandler
 584              		.thumb_set UART1_ERR_DriverIRQHandler,IntDefaultHandler
 585              		.weak	UART1_RX_TX_DriverIRQHandler
 586              		.thumb_set UART1_RX_TX_DriverIRQHandler,IntDefaultHandler
 587              		.weak	UART0_ERR_DriverIRQHandler
 588              		.thumb_set UART0_ERR_DriverIRQHandler,IntDefaultHandler
 589              		.weak	UART0_RX_TX_DriverIRQHandler
 590              		.thumb_set UART0_RX_TX_DriverIRQHandler,IntDefaultHandler
 591              		.weak	UART0_LON_DriverIRQHandler
 592              		.thumb_set UART0_LON_DriverIRQHandler,IntDefaultHandler
 593              		.weak	I2S0_Rx_DriverIRQHandler
 594              		.thumb_set I2S0_Rx_DriverIRQHandler,IntDefaultHandler
 595              		.weak	I2S0_Tx_DriverIRQHandler
 596              		.thumb_set I2S0_Tx_DriverIRQHandler,IntDefaultHandler
 597              		.weak	SPI1_DriverIRQHandler
 598              		.thumb_set SPI1_DriverIRQHandler,IntDefaultHandler
 599              		.weak	SPI0_DriverIRQHandler
 600              		.thumb_set SPI0_DriverIRQHandler,IntDefaultHandler
 601              		.weak	I2C1_DriverIRQHandler
 602              		.thumb_set I2C1_DriverIRQHandler,IntDefaultHandler
 603              		.weak	I2C0_DriverIRQHandler
 604              		.thumb_set I2C0_DriverIRQHandler,IntDefaultHandler
 605              		.weak	RNG_DriverIRQHandler
 606              		.thumb_set RNG_DriverIRQHandler,IntDefaultHandler
 607              		.weak	WDOG_EWM_DriverIRQHandler
 608              		.thumb_set WDOG_EWM_DriverIRQHandler,IntDefaultHandler
 609              		.weak	LLWU_DriverIRQHandler
 610              		.thumb_set LLWU_DriverIRQHandler,IntDefaultHandler
 611              		.weak	LVD_LVW_DriverIRQHandler
 612              		.thumb_set LVD_LVW_DriverIRQHandler,IntDefaultHandler
 613              		.weak	Read_Collision_DriverIRQHandler
 614              		.thumb_set Read_Collision_DriverIRQHandler,IntDefaultHandler
 615              		.weak	FTFE_DriverIRQHandler
 616              		.thumb_set FTFE_DriverIRQHandler,IntDefaultHandler
 617              		.weak	MCM_DriverIRQHandler
 618              		.thumb_set MCM_DriverIRQHandler,IntDefaultHandler
 619              		.weak	DMA_Error_DriverIRQHandler
 620              		.thumb_set DMA_Error_DriverIRQHandler,IntDefaultHandler
 621              		.weak	DMA15_DriverIRQHandler
 622              		.thumb_set DMA15_DriverIRQHandler,IntDefaultHandler
 623              		.weak	DMA14_DriverIRQHandler
 624              		.thumb_set DMA14_DriverIRQHandler,IntDefaultHandler
 625              		.weak	DMA13_DriverIRQHandler
 626              		.thumb_set DMA13_DriverIRQHandler,IntDefaultHandler
 627              		.weak	DMA12_DriverIRQHandler
 628              		.thumb_set DMA12_DriverIRQHandler,IntDefaultHandler
 629              		.weak	DMA11_DriverIRQHandler
 630              		.thumb_set DMA11_DriverIRQHandler,IntDefaultHandler
 631              		.weak	DMA10_DriverIRQHandler
 632              		.thumb_set DMA10_DriverIRQHandler,IntDefaultHandler
 633              		.weak	DMA9_DriverIRQHandler
 634              		.thumb_set DMA9_DriverIRQHandler,IntDefaultHandler
 635              		.weak	DMA8_DriverIRQHandler
 636              		.thumb_set DMA8_DriverIRQHandler,IntDefaultHandler
 637              		.weak	DMA7_DriverIRQHandler
 638              		.thumb_set DMA7_DriverIRQHandler,IntDefaultHandler
 639              		.weak	DMA6_DriverIRQHandler
 640              		.thumb_set DMA6_DriverIRQHandler,IntDefaultHandler
 641              		.weak	DMA5_DriverIRQHandler
 642              		.thumb_set DMA5_DriverIRQHandler,IntDefaultHandler
 643              		.weak	DMA4_DriverIRQHandler
 644              		.thumb_set DMA4_DriverIRQHandler,IntDefaultHandler
 645              		.weak	DMA3_DriverIRQHandler
 646              		.thumb_set DMA3_DriverIRQHandler,IntDefaultHandler
 647              		.weak	DMA2_DriverIRQHandler
 648              		.thumb_set DMA2_DriverIRQHandler,IntDefaultHandler
 649              		.weak	DMA1_DriverIRQHandler
 650              		.thumb_set DMA1_DriverIRQHandler,IntDefaultHandler
 651              		.weak	DMA0_DriverIRQHandler
 652              		.thumb_set DMA0_DriverIRQHandler,IntDefaultHandler
 653              		.section	.text.DMA0_IRQHandler,"ax",%progbits
 654              		.align	1
 655              		.weak	DMA0_IRQHandler
 656              		.syntax unified
 657              		.thumb
 658              		.thumb_func
 659              		.fpu fpv4-sp-d16
 661              	DMA0_IRQHandler:
 662              	.LFB13:
 607:../startup/startup_mk64f12.c **** }
 608:../startup/startup_mk64f12.c **** 
 609:../startup/startup_mk64f12.c **** //*****************************************************************************
 610:../startup/startup_mk64f12.c **** // Default application exception handlers. Override the ones here by defining
 611:../startup/startup_mk64f12.c **** // your own handler routines in your application code. These routines call
 612:../startup/startup_mk64f12.c **** // driver exception handlers or IntDefaultHandler() if no driver exception
 613:../startup/startup_mk64f12.c **** // handler is included.
 614:../startup/startup_mk64f12.c **** //*****************************************************************************
 615:../startup/startup_mk64f12.c **** WEAK void DMA0_IRQHandler(void)
 616:../startup/startup_mk64f12.c **** {   DMA0_DriverIRQHandler();
 663              		.loc 1 616 0
 664              		.cfi_startproc
 665              		@ args = 0, pretend = 0, frame = 0
 666              		@ frame_needed = 0, uses_anonymous_args = 0
 667              		.loc 1 616 0
 668 0000 08B5     		push	{r3, lr}
 669              		.cfi_def_cfa_offset 8
 670              		.cfi_offset 3, -8
 671              		.cfi_offset 14, -4
 672              		.loc 1 616 0
 673 0002 FFF7FEFF 		bl	DMA0_DriverIRQHandler
 617:../startup/startup_mk64f12.c **** }
 674              		.loc 1 617 0
 675 0006 08BD     		pop	{r3, pc}
 676              		.cfi_endproc
 677              	.LFE13:
 679              		.section	.text.DMA1_IRQHandler,"ax",%progbits
 680              		.align	1
 681              		.weak	DMA1_IRQHandler
 682              		.syntax unified
 683              		.thumb
 684              		.thumb_func
 685              		.fpu fpv4-sp-d16
 687              	DMA1_IRQHandler:
 688              	.LFB14:
 618:../startup/startup_mk64f12.c **** 
 619:../startup/startup_mk64f12.c **** WEAK void DMA1_IRQHandler(void)
 620:../startup/startup_mk64f12.c **** {   DMA1_DriverIRQHandler();
 689              		.loc 1 620 0
 690              		.cfi_startproc
 691              		@ args = 0, pretend = 0, frame = 0
 692              		@ frame_needed = 0, uses_anonymous_args = 0
 693 0000 08B5     		push	{r3, lr}
 694              		.cfi_def_cfa_offset 8
 695              		.cfi_offset 3, -8
 696              		.cfi_offset 14, -4
 697              		.loc 1 620 0
 698 0002 FFF7FEFF 		bl	DMA1_DriverIRQHandler
 621:../startup/startup_mk64f12.c **** }
 699              		.loc 1 621 0
 700 0006 08BD     		pop	{r3, pc}
 701              		.cfi_endproc
 702              	.LFE14:
 704              		.section	.text.DMA2_IRQHandler,"ax",%progbits
 705              		.align	1
 706              		.weak	DMA2_IRQHandler
 707              		.syntax unified
 708              		.thumb
 709              		.thumb_func
 710              		.fpu fpv4-sp-d16
 712              	DMA2_IRQHandler:
 713              	.LFB15:
 622:../startup/startup_mk64f12.c **** 
 623:../startup/startup_mk64f12.c **** WEAK void DMA2_IRQHandler(void)
 624:../startup/startup_mk64f12.c **** {   DMA2_DriverIRQHandler();
 714              		.loc 1 624 0
 715              		.cfi_startproc
 716              		@ args = 0, pretend = 0, frame = 0
 717              		@ frame_needed = 0, uses_anonymous_args = 0
 718 0000 08B5     		push	{r3, lr}
 719              		.cfi_def_cfa_offset 8
 720              		.cfi_offset 3, -8
 721              		.cfi_offset 14, -4
 722              		.loc 1 624 0
 723 0002 FFF7FEFF 		bl	DMA2_DriverIRQHandler
 625:../startup/startup_mk64f12.c **** }
 724              		.loc 1 625 0
 725 0006 08BD     		pop	{r3, pc}
 726              		.cfi_endproc
 727              	.LFE15:
 729              		.section	.text.DMA3_IRQHandler,"ax",%progbits
 730              		.align	1
 731              		.weak	DMA3_IRQHandler
 732              		.syntax unified
 733              		.thumb
 734              		.thumb_func
 735              		.fpu fpv4-sp-d16
 737              	DMA3_IRQHandler:
 738              	.LFB16:
 626:../startup/startup_mk64f12.c **** 
 627:../startup/startup_mk64f12.c **** WEAK void DMA3_IRQHandler(void)
 628:../startup/startup_mk64f12.c **** {   DMA3_DriverIRQHandler();
 739              		.loc 1 628 0
 740              		.cfi_startproc
 741              		@ args = 0, pretend = 0, frame = 0
 742              		@ frame_needed = 0, uses_anonymous_args = 0
 743 0000 08B5     		push	{r3, lr}
 744              		.cfi_def_cfa_offset 8
 745              		.cfi_offset 3, -8
 746              		.cfi_offset 14, -4
 747              		.loc 1 628 0
 748 0002 FFF7FEFF 		bl	DMA3_DriverIRQHandler
 629:../startup/startup_mk64f12.c **** }
 749              		.loc 1 629 0
 750 0006 08BD     		pop	{r3, pc}
 751              		.cfi_endproc
 752              	.LFE16:
 754              		.section	.text.DMA4_IRQHandler,"ax",%progbits
 755              		.align	1
 756              		.weak	DMA4_IRQHandler
 757              		.syntax unified
 758              		.thumb
 759              		.thumb_func
 760              		.fpu fpv4-sp-d16
 762              	DMA4_IRQHandler:
 763              	.LFB17:
 630:../startup/startup_mk64f12.c **** 
 631:../startup/startup_mk64f12.c **** WEAK void DMA4_IRQHandler(void)
 632:../startup/startup_mk64f12.c **** {   DMA4_DriverIRQHandler();
 764              		.loc 1 632 0
 765              		.cfi_startproc
 766              		@ args = 0, pretend = 0, frame = 0
 767              		@ frame_needed = 0, uses_anonymous_args = 0
 768 0000 08B5     		push	{r3, lr}
 769              		.cfi_def_cfa_offset 8
 770              		.cfi_offset 3, -8
 771              		.cfi_offset 14, -4
 772              		.loc 1 632 0
 773 0002 FFF7FEFF 		bl	DMA4_DriverIRQHandler
 633:../startup/startup_mk64f12.c **** }
 774              		.loc 1 633 0
 775 0006 08BD     		pop	{r3, pc}
 776              		.cfi_endproc
 777              	.LFE17:
 779              		.section	.text.DMA5_IRQHandler,"ax",%progbits
 780              		.align	1
 781              		.weak	DMA5_IRQHandler
 782              		.syntax unified
 783              		.thumb
 784              		.thumb_func
 785              		.fpu fpv4-sp-d16
 787              	DMA5_IRQHandler:
 788              	.LFB18:
 634:../startup/startup_mk64f12.c **** 
 635:../startup/startup_mk64f12.c **** WEAK void DMA5_IRQHandler(void)
 636:../startup/startup_mk64f12.c **** {   DMA5_DriverIRQHandler();
 789              		.loc 1 636 0
 790              		.cfi_startproc
 791              		@ args = 0, pretend = 0, frame = 0
 792              		@ frame_needed = 0, uses_anonymous_args = 0
 793 0000 08B5     		push	{r3, lr}
 794              		.cfi_def_cfa_offset 8
 795              		.cfi_offset 3, -8
 796              		.cfi_offset 14, -4
 797              		.loc 1 636 0
 798 0002 FFF7FEFF 		bl	DMA5_DriverIRQHandler
 637:../startup/startup_mk64f12.c **** }
 799              		.loc 1 637 0
 800 0006 08BD     		pop	{r3, pc}
 801              		.cfi_endproc
 802              	.LFE18:
 804              		.section	.text.DMA6_IRQHandler,"ax",%progbits
 805              		.align	1
 806              		.weak	DMA6_IRQHandler
 807              		.syntax unified
 808              		.thumb
 809              		.thumb_func
 810              		.fpu fpv4-sp-d16
 812              	DMA6_IRQHandler:
 813              	.LFB19:
 638:../startup/startup_mk64f12.c **** 
 639:../startup/startup_mk64f12.c **** WEAK void DMA6_IRQHandler(void)
 640:../startup/startup_mk64f12.c **** {   DMA6_DriverIRQHandler();
 814              		.loc 1 640 0
 815              		.cfi_startproc
 816              		@ args = 0, pretend = 0, frame = 0
 817              		@ frame_needed = 0, uses_anonymous_args = 0
 818 0000 08B5     		push	{r3, lr}
 819              		.cfi_def_cfa_offset 8
 820              		.cfi_offset 3, -8
 821              		.cfi_offset 14, -4
 822              		.loc 1 640 0
 823 0002 FFF7FEFF 		bl	DMA6_DriverIRQHandler
 641:../startup/startup_mk64f12.c **** }
 824              		.loc 1 641 0
 825 0006 08BD     		pop	{r3, pc}
 826              		.cfi_endproc
 827              	.LFE19:
 829              		.section	.text.DMA7_IRQHandler,"ax",%progbits
 830              		.align	1
 831              		.weak	DMA7_IRQHandler
 832              		.syntax unified
 833              		.thumb
 834              		.thumb_func
 835              		.fpu fpv4-sp-d16
 837              	DMA7_IRQHandler:
 838              	.LFB20:
 642:../startup/startup_mk64f12.c **** 
 643:../startup/startup_mk64f12.c **** WEAK void DMA7_IRQHandler(void)
 644:../startup/startup_mk64f12.c **** {   DMA7_DriverIRQHandler();
 839              		.loc 1 644 0
 840              		.cfi_startproc
 841              		@ args = 0, pretend = 0, frame = 0
 842              		@ frame_needed = 0, uses_anonymous_args = 0
 843 0000 08B5     		push	{r3, lr}
 844              		.cfi_def_cfa_offset 8
 845              		.cfi_offset 3, -8
 846              		.cfi_offset 14, -4
 847              		.loc 1 644 0
 848 0002 FFF7FEFF 		bl	DMA7_DriverIRQHandler
 645:../startup/startup_mk64f12.c **** }
 849              		.loc 1 645 0
 850 0006 08BD     		pop	{r3, pc}
 851              		.cfi_endproc
 852              	.LFE20:
 854              		.section	.text.DMA8_IRQHandler,"ax",%progbits
 855              		.align	1
 856              		.weak	DMA8_IRQHandler
 857              		.syntax unified
 858              		.thumb
 859              		.thumb_func
 860              		.fpu fpv4-sp-d16
 862              	DMA8_IRQHandler:
 863              	.LFB21:
 646:../startup/startup_mk64f12.c **** 
 647:../startup/startup_mk64f12.c **** WEAK void DMA8_IRQHandler(void)
 648:../startup/startup_mk64f12.c **** {   DMA8_DriverIRQHandler();
 864              		.loc 1 648 0
 865              		.cfi_startproc
 866              		@ args = 0, pretend = 0, frame = 0
 867              		@ frame_needed = 0, uses_anonymous_args = 0
 868 0000 08B5     		push	{r3, lr}
 869              		.cfi_def_cfa_offset 8
 870              		.cfi_offset 3, -8
 871              		.cfi_offset 14, -4
 872              		.loc 1 648 0
 873 0002 FFF7FEFF 		bl	DMA8_DriverIRQHandler
 649:../startup/startup_mk64f12.c **** }
 874              		.loc 1 649 0
 875 0006 08BD     		pop	{r3, pc}
 876              		.cfi_endproc
 877              	.LFE21:
 879              		.section	.text.DMA9_IRQHandler,"ax",%progbits
 880              		.align	1
 881              		.weak	DMA9_IRQHandler
 882              		.syntax unified
 883              		.thumb
 884              		.thumb_func
 885              		.fpu fpv4-sp-d16
 887              	DMA9_IRQHandler:
 888              	.LFB22:
 650:../startup/startup_mk64f12.c **** 
 651:../startup/startup_mk64f12.c **** WEAK void DMA9_IRQHandler(void)
 652:../startup/startup_mk64f12.c **** {   DMA9_DriverIRQHandler();
 889              		.loc 1 652 0
 890              		.cfi_startproc
 891              		@ args = 0, pretend = 0, frame = 0
 892              		@ frame_needed = 0, uses_anonymous_args = 0
 893 0000 08B5     		push	{r3, lr}
 894              		.cfi_def_cfa_offset 8
 895              		.cfi_offset 3, -8
 896              		.cfi_offset 14, -4
 897              		.loc 1 652 0
 898 0002 FFF7FEFF 		bl	DMA9_DriverIRQHandler
 653:../startup/startup_mk64f12.c **** }
 899              		.loc 1 653 0
 900 0006 08BD     		pop	{r3, pc}
 901              		.cfi_endproc
 902              	.LFE22:
 904              		.section	.text.DMA10_IRQHandler,"ax",%progbits
 905              		.align	1
 906              		.weak	DMA10_IRQHandler
 907              		.syntax unified
 908              		.thumb
 909              		.thumb_func
 910              		.fpu fpv4-sp-d16
 912              	DMA10_IRQHandler:
 913              	.LFB23:
 654:../startup/startup_mk64f12.c **** 
 655:../startup/startup_mk64f12.c **** WEAK void DMA10_IRQHandler(void)
 656:../startup/startup_mk64f12.c **** {   DMA10_DriverIRQHandler();
 914              		.loc 1 656 0
 915              		.cfi_startproc
 916              		@ args = 0, pretend = 0, frame = 0
 917              		@ frame_needed = 0, uses_anonymous_args = 0
 918 0000 08B5     		push	{r3, lr}
 919              		.cfi_def_cfa_offset 8
 920              		.cfi_offset 3, -8
 921              		.cfi_offset 14, -4
 922              		.loc 1 656 0
 923 0002 FFF7FEFF 		bl	DMA10_DriverIRQHandler
 657:../startup/startup_mk64f12.c **** }
 924              		.loc 1 657 0
 925 0006 08BD     		pop	{r3, pc}
 926              		.cfi_endproc
 927              	.LFE23:
 929              		.section	.text.DMA11_IRQHandler,"ax",%progbits
 930              		.align	1
 931              		.weak	DMA11_IRQHandler
 932              		.syntax unified
 933              		.thumb
 934              		.thumb_func
 935              		.fpu fpv4-sp-d16
 937              	DMA11_IRQHandler:
 938              	.LFB24:
 658:../startup/startup_mk64f12.c **** 
 659:../startup/startup_mk64f12.c **** WEAK void DMA11_IRQHandler(void)
 660:../startup/startup_mk64f12.c **** {   DMA11_DriverIRQHandler();
 939              		.loc 1 660 0
 940              		.cfi_startproc
 941              		@ args = 0, pretend = 0, frame = 0
 942              		@ frame_needed = 0, uses_anonymous_args = 0
 943 0000 08B5     		push	{r3, lr}
 944              		.cfi_def_cfa_offset 8
 945              		.cfi_offset 3, -8
 946              		.cfi_offset 14, -4
 947              		.loc 1 660 0
 948 0002 FFF7FEFF 		bl	DMA11_DriverIRQHandler
 661:../startup/startup_mk64f12.c **** }
 949              		.loc 1 661 0
 950 0006 08BD     		pop	{r3, pc}
 951              		.cfi_endproc
 952              	.LFE24:
 954              		.section	.text.DMA12_IRQHandler,"ax",%progbits
 955              		.align	1
 956              		.weak	DMA12_IRQHandler
 957              		.syntax unified
 958              		.thumb
 959              		.thumb_func
 960              		.fpu fpv4-sp-d16
 962              	DMA12_IRQHandler:
 963              	.LFB25:
 662:../startup/startup_mk64f12.c **** 
 663:../startup/startup_mk64f12.c **** WEAK void DMA12_IRQHandler(void)
 664:../startup/startup_mk64f12.c **** {   DMA12_DriverIRQHandler();
 964              		.loc 1 664 0
 965              		.cfi_startproc
 966              		@ args = 0, pretend = 0, frame = 0
 967              		@ frame_needed = 0, uses_anonymous_args = 0
 968 0000 08B5     		push	{r3, lr}
 969              		.cfi_def_cfa_offset 8
 970              		.cfi_offset 3, -8
 971              		.cfi_offset 14, -4
 972              		.loc 1 664 0
 973 0002 FFF7FEFF 		bl	DMA12_DriverIRQHandler
 665:../startup/startup_mk64f12.c **** }
 974              		.loc 1 665 0
 975 0006 08BD     		pop	{r3, pc}
 976              		.cfi_endproc
 977              	.LFE25:
 979              		.section	.text.DMA13_IRQHandler,"ax",%progbits
 980              		.align	1
 981              		.weak	DMA13_IRQHandler
 982              		.syntax unified
 983              		.thumb
 984              		.thumb_func
 985              		.fpu fpv4-sp-d16
 987              	DMA13_IRQHandler:
 988              	.LFB26:
 666:../startup/startup_mk64f12.c **** 
 667:../startup/startup_mk64f12.c **** WEAK void DMA13_IRQHandler(void)
 668:../startup/startup_mk64f12.c **** {   DMA13_DriverIRQHandler();
 989              		.loc 1 668 0
 990              		.cfi_startproc
 991              		@ args = 0, pretend = 0, frame = 0
 992              		@ frame_needed = 0, uses_anonymous_args = 0
 993 0000 08B5     		push	{r3, lr}
 994              		.cfi_def_cfa_offset 8
 995              		.cfi_offset 3, -8
 996              		.cfi_offset 14, -4
 997              		.loc 1 668 0
 998 0002 FFF7FEFF 		bl	DMA13_DriverIRQHandler
 669:../startup/startup_mk64f12.c **** }
 999              		.loc 1 669 0
 1000 0006 08BD     		pop	{r3, pc}
 1001              		.cfi_endproc
 1002              	.LFE26:
 1004              		.section	.text.DMA14_IRQHandler,"ax",%progbits
 1005              		.align	1
 1006              		.weak	DMA14_IRQHandler
 1007              		.syntax unified
 1008              		.thumb
 1009              		.thumb_func
 1010              		.fpu fpv4-sp-d16
 1012              	DMA14_IRQHandler:
 1013              	.LFB27:
 670:../startup/startup_mk64f12.c **** 
 671:../startup/startup_mk64f12.c **** WEAK void DMA14_IRQHandler(void)
 672:../startup/startup_mk64f12.c **** {   DMA14_DriverIRQHandler();
 1014              		.loc 1 672 0
 1015              		.cfi_startproc
 1016              		@ args = 0, pretend = 0, frame = 0
 1017              		@ frame_needed = 0, uses_anonymous_args = 0
 1018 0000 08B5     		push	{r3, lr}
 1019              		.cfi_def_cfa_offset 8
 1020              		.cfi_offset 3, -8
 1021              		.cfi_offset 14, -4
 1022              		.loc 1 672 0
 1023 0002 FFF7FEFF 		bl	DMA14_DriverIRQHandler
 673:../startup/startup_mk64f12.c **** }
 1024              		.loc 1 673 0
 1025 0006 08BD     		pop	{r3, pc}
 1026              		.cfi_endproc
 1027              	.LFE27:
 1029              		.section	.text.DMA15_IRQHandler,"ax",%progbits
 1030              		.align	1
 1031              		.weak	DMA15_IRQHandler
 1032              		.syntax unified
 1033              		.thumb
 1034              		.thumb_func
 1035              		.fpu fpv4-sp-d16
 1037              	DMA15_IRQHandler:
 1038              	.LFB28:
 674:../startup/startup_mk64f12.c **** 
 675:../startup/startup_mk64f12.c **** WEAK void DMA15_IRQHandler(void)
 676:../startup/startup_mk64f12.c **** {   DMA15_DriverIRQHandler();
 1039              		.loc 1 676 0
 1040              		.cfi_startproc
 1041              		@ args = 0, pretend = 0, frame = 0
 1042              		@ frame_needed = 0, uses_anonymous_args = 0
 1043 0000 08B5     		push	{r3, lr}
 1044              		.cfi_def_cfa_offset 8
 1045              		.cfi_offset 3, -8
 1046              		.cfi_offset 14, -4
 1047              		.loc 1 676 0
 1048 0002 FFF7FEFF 		bl	DMA15_DriverIRQHandler
 677:../startup/startup_mk64f12.c **** }
 1049              		.loc 1 677 0
 1050 0006 08BD     		pop	{r3, pc}
 1051              		.cfi_endproc
 1052              	.LFE28:
 1054              		.section	.text.DMA_Error_IRQHandler,"ax",%progbits
 1055              		.align	1
 1056              		.weak	DMA_Error_IRQHandler
 1057              		.syntax unified
 1058              		.thumb
 1059              		.thumb_func
 1060              		.fpu fpv4-sp-d16
 1062              	DMA_Error_IRQHandler:
 1063              	.LFB29:
 678:../startup/startup_mk64f12.c **** 
 679:../startup/startup_mk64f12.c **** WEAK void DMA_Error_IRQHandler(void)
 680:../startup/startup_mk64f12.c **** {   DMA_Error_DriverIRQHandler();
 1064              		.loc 1 680 0
 1065              		.cfi_startproc
 1066              		@ args = 0, pretend = 0, frame = 0
 1067              		@ frame_needed = 0, uses_anonymous_args = 0
 1068 0000 08B5     		push	{r3, lr}
 1069              		.cfi_def_cfa_offset 8
 1070              		.cfi_offset 3, -8
 1071              		.cfi_offset 14, -4
 1072              		.loc 1 680 0
 1073 0002 FFF7FEFF 		bl	DMA_Error_DriverIRQHandler
 681:../startup/startup_mk64f12.c **** }
 1074              		.loc 1 681 0
 1075 0006 08BD     		pop	{r3, pc}
 1076              		.cfi_endproc
 1077              	.LFE29:
 1079              		.section	.text.MCM_IRQHandler,"ax",%progbits
 1080              		.align	1
 1081              		.weak	MCM_IRQHandler
 1082              		.syntax unified
 1083              		.thumb
 1084              		.thumb_func
 1085              		.fpu fpv4-sp-d16
 1087              	MCM_IRQHandler:
 1088              	.LFB30:
 682:../startup/startup_mk64f12.c **** 
 683:../startup/startup_mk64f12.c **** WEAK void MCM_IRQHandler(void)
 684:../startup/startup_mk64f12.c **** {   MCM_DriverIRQHandler();
 1089              		.loc 1 684 0
 1090              		.cfi_startproc
 1091              		@ args = 0, pretend = 0, frame = 0
 1092              		@ frame_needed = 0, uses_anonymous_args = 0
 1093 0000 08B5     		push	{r3, lr}
 1094              		.cfi_def_cfa_offset 8
 1095              		.cfi_offset 3, -8
 1096              		.cfi_offset 14, -4
 1097              		.loc 1 684 0
 1098 0002 FFF7FEFF 		bl	MCM_DriverIRQHandler
 685:../startup/startup_mk64f12.c **** }
 1099              		.loc 1 685 0
 1100 0006 08BD     		pop	{r3, pc}
 1101              		.cfi_endproc
 1102              	.LFE30:
 1104              		.section	.text.FTFE_IRQHandler,"ax",%progbits
 1105              		.align	1
 1106              		.weak	FTFE_IRQHandler
 1107              		.syntax unified
 1108              		.thumb
 1109              		.thumb_func
 1110              		.fpu fpv4-sp-d16
 1112              	FTFE_IRQHandler:
 1113              	.LFB31:
 686:../startup/startup_mk64f12.c **** 
 687:../startup/startup_mk64f12.c **** WEAK void FTFE_IRQHandler(void)
 688:../startup/startup_mk64f12.c **** {   FTFE_DriverIRQHandler();
 1114              		.loc 1 688 0
 1115              		.cfi_startproc
 1116              		@ args = 0, pretend = 0, frame = 0
 1117              		@ frame_needed = 0, uses_anonymous_args = 0
 1118 0000 08B5     		push	{r3, lr}
 1119              		.cfi_def_cfa_offset 8
 1120              		.cfi_offset 3, -8
 1121              		.cfi_offset 14, -4
 1122              		.loc 1 688 0
 1123 0002 FFF7FEFF 		bl	FTFE_DriverIRQHandler
 689:../startup/startup_mk64f12.c **** }
 1124              		.loc 1 689 0
 1125 0006 08BD     		pop	{r3, pc}
 1126              		.cfi_endproc
 1127              	.LFE31:
 1129              		.section	.text.Read_Collision_IRQHandler,"ax",%progbits
 1130              		.align	1
 1131              		.weak	Read_Collision_IRQHandler
 1132              		.syntax unified
 1133              		.thumb
 1134              		.thumb_func
 1135              		.fpu fpv4-sp-d16
 1137              	Read_Collision_IRQHandler:
 1138              	.LFB32:
 690:../startup/startup_mk64f12.c **** 
 691:../startup/startup_mk64f12.c **** WEAK void Read_Collision_IRQHandler(void)
 692:../startup/startup_mk64f12.c **** {   Read_Collision_DriverIRQHandler();
 1139              		.loc 1 692 0
 1140              		.cfi_startproc
 1141              		@ args = 0, pretend = 0, frame = 0
 1142              		@ frame_needed = 0, uses_anonymous_args = 0
 1143 0000 08B5     		push	{r3, lr}
 1144              		.cfi_def_cfa_offset 8
 1145              		.cfi_offset 3, -8
 1146              		.cfi_offset 14, -4
 1147              		.loc 1 692 0
 1148 0002 FFF7FEFF 		bl	Read_Collision_DriverIRQHandler
 693:../startup/startup_mk64f12.c **** }
 1149              		.loc 1 693 0
 1150 0006 08BD     		pop	{r3, pc}
 1151              		.cfi_endproc
 1152              	.LFE32:
 1154              		.section	.text.LVD_LVW_IRQHandler,"ax",%progbits
 1155              		.align	1
 1156              		.weak	LVD_LVW_IRQHandler
 1157              		.syntax unified
 1158              		.thumb
 1159              		.thumb_func
 1160              		.fpu fpv4-sp-d16
 1162              	LVD_LVW_IRQHandler:
 1163              	.LFB33:
 694:../startup/startup_mk64f12.c **** 
 695:../startup/startup_mk64f12.c **** WEAK void LVD_LVW_IRQHandler(void)
 696:../startup/startup_mk64f12.c **** {   LVD_LVW_DriverIRQHandler();
 1164              		.loc 1 696 0
 1165              		.cfi_startproc
 1166              		@ args = 0, pretend = 0, frame = 0
 1167              		@ frame_needed = 0, uses_anonymous_args = 0
 1168 0000 08B5     		push	{r3, lr}
 1169              		.cfi_def_cfa_offset 8
 1170              		.cfi_offset 3, -8
 1171              		.cfi_offset 14, -4
 1172              		.loc 1 696 0
 1173 0002 FFF7FEFF 		bl	LVD_LVW_DriverIRQHandler
 697:../startup/startup_mk64f12.c **** }
 1174              		.loc 1 697 0
 1175 0006 08BD     		pop	{r3, pc}
 1176              		.cfi_endproc
 1177              	.LFE33:
 1179              		.section	.text.LLWU_IRQHandler,"ax",%progbits
 1180              		.align	1
 1181              		.weak	LLWU_IRQHandler
 1182              		.syntax unified
 1183              		.thumb
 1184              		.thumb_func
 1185              		.fpu fpv4-sp-d16
 1187              	LLWU_IRQHandler:
 1188              	.LFB34:
 698:../startup/startup_mk64f12.c **** 
 699:../startup/startup_mk64f12.c **** WEAK void LLWU_IRQHandler(void)
 700:../startup/startup_mk64f12.c **** {   LLWU_DriverIRQHandler();
 1189              		.loc 1 700 0
 1190              		.cfi_startproc
 1191              		@ args = 0, pretend = 0, frame = 0
 1192              		@ frame_needed = 0, uses_anonymous_args = 0
 1193 0000 08B5     		push	{r3, lr}
 1194              		.cfi_def_cfa_offset 8
 1195              		.cfi_offset 3, -8
 1196              		.cfi_offset 14, -4
 1197              		.loc 1 700 0
 1198 0002 FFF7FEFF 		bl	LLWU_DriverIRQHandler
 701:../startup/startup_mk64f12.c **** }
 1199              		.loc 1 701 0
 1200 0006 08BD     		pop	{r3, pc}
 1201              		.cfi_endproc
 1202              	.LFE34:
 1204              		.section	.text.WDOG_EWM_IRQHandler,"ax",%progbits
 1205              		.align	1
 1206              		.weak	WDOG_EWM_IRQHandler
 1207              		.syntax unified
 1208              		.thumb
 1209              		.thumb_func
 1210              		.fpu fpv4-sp-d16
 1212              	WDOG_EWM_IRQHandler:
 1213              	.LFB35:
 702:../startup/startup_mk64f12.c **** 
 703:../startup/startup_mk64f12.c **** WEAK void WDOG_EWM_IRQHandler(void)
 704:../startup/startup_mk64f12.c **** {   WDOG_EWM_DriverIRQHandler();
 1214              		.loc 1 704 0
 1215              		.cfi_startproc
 1216              		@ args = 0, pretend = 0, frame = 0
 1217              		@ frame_needed = 0, uses_anonymous_args = 0
 1218 0000 08B5     		push	{r3, lr}
 1219              		.cfi_def_cfa_offset 8
 1220              		.cfi_offset 3, -8
 1221              		.cfi_offset 14, -4
 1222              		.loc 1 704 0
 1223 0002 FFF7FEFF 		bl	WDOG_EWM_DriverIRQHandler
 705:../startup/startup_mk64f12.c **** }
 1224              		.loc 1 705 0
 1225 0006 08BD     		pop	{r3, pc}
 1226              		.cfi_endproc
 1227              	.LFE35:
 1229              		.section	.text.RNG_IRQHandler,"ax",%progbits
 1230              		.align	1
 1231              		.weak	RNG_IRQHandler
 1232              		.syntax unified
 1233              		.thumb
 1234              		.thumb_func
 1235              		.fpu fpv4-sp-d16
 1237              	RNG_IRQHandler:
 1238              	.LFB36:
 706:../startup/startup_mk64f12.c **** 
 707:../startup/startup_mk64f12.c **** WEAK void RNG_IRQHandler(void)
 708:../startup/startup_mk64f12.c **** {   RNG_DriverIRQHandler();
 1239              		.loc 1 708 0
 1240              		.cfi_startproc
 1241              		@ args = 0, pretend = 0, frame = 0
 1242              		@ frame_needed = 0, uses_anonymous_args = 0
 1243 0000 08B5     		push	{r3, lr}
 1244              		.cfi_def_cfa_offset 8
 1245              		.cfi_offset 3, -8
 1246              		.cfi_offset 14, -4
 1247              		.loc 1 708 0
 1248 0002 FFF7FEFF 		bl	RNG_DriverIRQHandler
 709:../startup/startup_mk64f12.c **** }
 1249              		.loc 1 709 0
 1250 0006 08BD     		pop	{r3, pc}
 1251              		.cfi_endproc
 1252              	.LFE36:
 1254              		.section	.text.I2C0_IRQHandler,"ax",%progbits
 1255              		.align	1
 1256              		.weak	I2C0_IRQHandler
 1257              		.syntax unified
 1258              		.thumb
 1259              		.thumb_func
 1260              		.fpu fpv4-sp-d16
 1262              	I2C0_IRQHandler:
 1263              	.LFB37:
 710:../startup/startup_mk64f12.c **** 
 711:../startup/startup_mk64f12.c **** WEAK void I2C0_IRQHandler(void)
 712:../startup/startup_mk64f12.c **** {   I2C0_DriverIRQHandler();
 1264              		.loc 1 712 0
 1265              		.cfi_startproc
 1266              		@ args = 0, pretend = 0, frame = 0
 1267              		@ frame_needed = 0, uses_anonymous_args = 0
 1268 0000 08B5     		push	{r3, lr}
 1269              		.cfi_def_cfa_offset 8
 1270              		.cfi_offset 3, -8
 1271              		.cfi_offset 14, -4
 1272              		.loc 1 712 0
 1273 0002 FFF7FEFF 		bl	I2C0_DriverIRQHandler
 713:../startup/startup_mk64f12.c **** }
 1274              		.loc 1 713 0
 1275 0006 08BD     		pop	{r3, pc}
 1276              		.cfi_endproc
 1277              	.LFE37:
 1279              		.section	.text.I2C1_IRQHandler,"ax",%progbits
 1280              		.align	1
 1281              		.weak	I2C1_IRQHandler
 1282              		.syntax unified
 1283              		.thumb
 1284              		.thumb_func
 1285              		.fpu fpv4-sp-d16
 1287              	I2C1_IRQHandler:
 1288              	.LFB38:
 714:../startup/startup_mk64f12.c **** 
 715:../startup/startup_mk64f12.c **** WEAK void I2C1_IRQHandler(void)
 716:../startup/startup_mk64f12.c **** {   I2C1_DriverIRQHandler();
 1289              		.loc 1 716 0
 1290              		.cfi_startproc
 1291              		@ args = 0, pretend = 0, frame = 0
 1292              		@ frame_needed = 0, uses_anonymous_args = 0
 1293 0000 08B5     		push	{r3, lr}
 1294              		.cfi_def_cfa_offset 8
 1295              		.cfi_offset 3, -8
 1296              		.cfi_offset 14, -4
 1297              		.loc 1 716 0
 1298 0002 FFF7FEFF 		bl	I2C1_DriverIRQHandler
 717:../startup/startup_mk64f12.c **** }
 1299              		.loc 1 717 0
 1300 0006 08BD     		pop	{r3, pc}
 1301              		.cfi_endproc
 1302              	.LFE38:
 1304              		.section	.text.SPI0_IRQHandler,"ax",%progbits
 1305              		.align	1
 1306              		.weak	SPI0_IRQHandler
 1307              		.syntax unified
 1308              		.thumb
 1309              		.thumb_func
 1310              		.fpu fpv4-sp-d16
 1312              	SPI0_IRQHandler:
 1313              	.LFB39:
 718:../startup/startup_mk64f12.c **** 
 719:../startup/startup_mk64f12.c **** WEAK void SPI0_IRQHandler(void)
 720:../startup/startup_mk64f12.c **** {   SPI0_DriverIRQHandler();
 1314              		.loc 1 720 0
 1315              		.cfi_startproc
 1316              		@ args = 0, pretend = 0, frame = 0
 1317              		@ frame_needed = 0, uses_anonymous_args = 0
 1318 0000 08B5     		push	{r3, lr}
 1319              		.cfi_def_cfa_offset 8
 1320              		.cfi_offset 3, -8
 1321              		.cfi_offset 14, -4
 1322              		.loc 1 720 0
 1323 0002 FFF7FEFF 		bl	SPI0_DriverIRQHandler
 721:../startup/startup_mk64f12.c **** }
 1324              		.loc 1 721 0
 1325 0006 08BD     		pop	{r3, pc}
 1326              		.cfi_endproc
 1327              	.LFE39:
 1329              		.section	.text.SPI1_IRQHandler,"ax",%progbits
 1330              		.align	1
 1331              		.weak	SPI1_IRQHandler
 1332              		.syntax unified
 1333              		.thumb
 1334              		.thumb_func
 1335              		.fpu fpv4-sp-d16
 1337              	SPI1_IRQHandler:
 1338              	.LFB40:
 722:../startup/startup_mk64f12.c **** 
 723:../startup/startup_mk64f12.c **** WEAK void SPI1_IRQHandler(void)
 724:../startup/startup_mk64f12.c **** {   SPI1_DriverIRQHandler();
 1339              		.loc 1 724 0
 1340              		.cfi_startproc
 1341              		@ args = 0, pretend = 0, frame = 0
 1342              		@ frame_needed = 0, uses_anonymous_args = 0
 1343 0000 08B5     		push	{r3, lr}
 1344              		.cfi_def_cfa_offset 8
 1345              		.cfi_offset 3, -8
 1346              		.cfi_offset 14, -4
 1347              		.loc 1 724 0
 1348 0002 FFF7FEFF 		bl	SPI1_DriverIRQHandler
 725:../startup/startup_mk64f12.c **** }
 1349              		.loc 1 725 0
 1350 0006 08BD     		pop	{r3, pc}
 1351              		.cfi_endproc
 1352              	.LFE40:
 1354              		.section	.text.I2S0_Tx_IRQHandler,"ax",%progbits
 1355              		.align	1
 1356              		.weak	I2S0_Tx_IRQHandler
 1357              		.syntax unified
 1358              		.thumb
 1359              		.thumb_func
 1360              		.fpu fpv4-sp-d16
 1362              	I2S0_Tx_IRQHandler:
 1363              	.LFB41:
 726:../startup/startup_mk64f12.c **** 
 727:../startup/startup_mk64f12.c **** WEAK void I2S0_Tx_IRQHandler(void)
 728:../startup/startup_mk64f12.c **** {   I2S0_Tx_DriverIRQHandler();
 1364              		.loc 1 728 0
 1365              		.cfi_startproc
 1366              		@ args = 0, pretend = 0, frame = 0
 1367              		@ frame_needed = 0, uses_anonymous_args = 0
 1368 0000 08B5     		push	{r3, lr}
 1369              		.cfi_def_cfa_offset 8
 1370              		.cfi_offset 3, -8
 1371              		.cfi_offset 14, -4
 1372              		.loc 1 728 0
 1373 0002 FFF7FEFF 		bl	I2S0_Tx_DriverIRQHandler
 729:../startup/startup_mk64f12.c **** }
 1374              		.loc 1 729 0
 1375 0006 08BD     		pop	{r3, pc}
 1376              		.cfi_endproc
 1377              	.LFE41:
 1379              		.section	.text.I2S0_Rx_IRQHandler,"ax",%progbits
 1380              		.align	1
 1381              		.weak	I2S0_Rx_IRQHandler
 1382              		.syntax unified
 1383              		.thumb
 1384              		.thumb_func
 1385              		.fpu fpv4-sp-d16
 1387              	I2S0_Rx_IRQHandler:
 1388              	.LFB42:
 730:../startup/startup_mk64f12.c **** 
 731:../startup/startup_mk64f12.c **** WEAK void I2S0_Rx_IRQHandler(void)
 732:../startup/startup_mk64f12.c **** {   I2S0_Rx_DriverIRQHandler();
 1389              		.loc 1 732 0
 1390              		.cfi_startproc
 1391              		@ args = 0, pretend = 0, frame = 0
 1392              		@ frame_needed = 0, uses_anonymous_args = 0
 1393 0000 08B5     		push	{r3, lr}
 1394              		.cfi_def_cfa_offset 8
 1395              		.cfi_offset 3, -8
 1396              		.cfi_offset 14, -4
 1397              		.loc 1 732 0
 1398 0002 FFF7FEFF 		bl	I2S0_Rx_DriverIRQHandler
 733:../startup/startup_mk64f12.c **** }
 1399              		.loc 1 733 0
 1400 0006 08BD     		pop	{r3, pc}
 1401              		.cfi_endproc
 1402              	.LFE42:
 1404              		.section	.text.UART0_LON_IRQHandler,"ax",%progbits
 1405              		.align	1
 1406              		.weak	UART0_LON_IRQHandler
 1407              		.syntax unified
 1408              		.thumb
 1409              		.thumb_func
 1410              		.fpu fpv4-sp-d16
 1412              	UART0_LON_IRQHandler:
 1413              	.LFB43:
 734:../startup/startup_mk64f12.c **** 
 735:../startup/startup_mk64f12.c **** WEAK void UART0_LON_IRQHandler(void)
 736:../startup/startup_mk64f12.c **** {   UART0_LON_DriverIRQHandler();
 1414              		.loc 1 736 0
 1415              		.cfi_startproc
 1416              		@ args = 0, pretend = 0, frame = 0
 1417              		@ frame_needed = 0, uses_anonymous_args = 0
 1418 0000 08B5     		push	{r3, lr}
 1419              		.cfi_def_cfa_offset 8
 1420              		.cfi_offset 3, -8
 1421              		.cfi_offset 14, -4
 1422              		.loc 1 736 0
 1423 0002 FFF7FEFF 		bl	UART0_LON_DriverIRQHandler
 737:../startup/startup_mk64f12.c **** }
 1424              		.loc 1 737 0
 1425 0006 08BD     		pop	{r3, pc}
 1426              		.cfi_endproc
 1427              	.LFE43:
 1429              		.section	.text.UART0_RX_TX_IRQHandler,"ax",%progbits
 1430              		.align	1
 1431              		.weak	UART0_RX_TX_IRQHandler
 1432              		.syntax unified
 1433              		.thumb
 1434              		.thumb_func
 1435              		.fpu fpv4-sp-d16
 1437              	UART0_RX_TX_IRQHandler:
 1438              	.LFB44:
 738:../startup/startup_mk64f12.c **** 
 739:../startup/startup_mk64f12.c **** WEAK void UART0_RX_TX_IRQHandler(void)
 740:../startup/startup_mk64f12.c **** {   UART0_RX_TX_DriverIRQHandler();
 1439              		.loc 1 740 0
 1440              		.cfi_startproc
 1441              		@ args = 0, pretend = 0, frame = 0
 1442              		@ frame_needed = 0, uses_anonymous_args = 0
 1443 0000 08B5     		push	{r3, lr}
 1444              		.cfi_def_cfa_offset 8
 1445              		.cfi_offset 3, -8
 1446              		.cfi_offset 14, -4
 1447              		.loc 1 740 0
 1448 0002 FFF7FEFF 		bl	UART0_RX_TX_DriverIRQHandler
 741:../startup/startup_mk64f12.c **** }
 1449              		.loc 1 741 0
 1450 0006 08BD     		pop	{r3, pc}
 1451              		.cfi_endproc
 1452              	.LFE44:
 1454              		.section	.text.UART0_ERR_IRQHandler,"ax",%progbits
 1455              		.align	1
 1456              		.weak	UART0_ERR_IRQHandler
 1457              		.syntax unified
 1458              		.thumb
 1459              		.thumb_func
 1460              		.fpu fpv4-sp-d16
 1462              	UART0_ERR_IRQHandler:
 1463              	.LFB45:
 742:../startup/startup_mk64f12.c **** 
 743:../startup/startup_mk64f12.c **** WEAK void UART0_ERR_IRQHandler(void)
 744:../startup/startup_mk64f12.c **** {   UART0_ERR_DriverIRQHandler();
 1464              		.loc 1 744 0
 1465              		.cfi_startproc
 1466              		@ args = 0, pretend = 0, frame = 0
 1467              		@ frame_needed = 0, uses_anonymous_args = 0
 1468 0000 08B5     		push	{r3, lr}
 1469              		.cfi_def_cfa_offset 8
 1470              		.cfi_offset 3, -8
 1471              		.cfi_offset 14, -4
 1472              		.loc 1 744 0
 1473 0002 FFF7FEFF 		bl	UART0_ERR_DriverIRQHandler
 745:../startup/startup_mk64f12.c **** }
 1474              		.loc 1 745 0
 1475 0006 08BD     		pop	{r3, pc}
 1476              		.cfi_endproc
 1477              	.LFE45:
 1479              		.section	.text.UART1_RX_TX_IRQHandler,"ax",%progbits
 1480              		.align	1
 1481              		.weak	UART1_RX_TX_IRQHandler
 1482              		.syntax unified
 1483              		.thumb
 1484              		.thumb_func
 1485              		.fpu fpv4-sp-d16
 1487              	UART1_RX_TX_IRQHandler:
 1488              	.LFB46:
 746:../startup/startup_mk64f12.c **** 
 747:../startup/startup_mk64f12.c **** WEAK void UART1_RX_TX_IRQHandler(void)
 748:../startup/startup_mk64f12.c **** {   UART1_RX_TX_DriverIRQHandler();
 1489              		.loc 1 748 0
 1490              		.cfi_startproc
 1491              		@ args = 0, pretend = 0, frame = 0
 1492              		@ frame_needed = 0, uses_anonymous_args = 0
 1493 0000 08B5     		push	{r3, lr}
 1494              		.cfi_def_cfa_offset 8
 1495              		.cfi_offset 3, -8
 1496              		.cfi_offset 14, -4
 1497              		.loc 1 748 0
 1498 0002 FFF7FEFF 		bl	UART1_RX_TX_DriverIRQHandler
 749:../startup/startup_mk64f12.c **** }
 1499              		.loc 1 749 0
 1500 0006 08BD     		pop	{r3, pc}
 1501              		.cfi_endproc
 1502              	.LFE46:
 1504              		.section	.text.UART1_ERR_IRQHandler,"ax",%progbits
 1505              		.align	1
 1506              		.weak	UART1_ERR_IRQHandler
 1507              		.syntax unified
 1508              		.thumb
 1509              		.thumb_func
 1510              		.fpu fpv4-sp-d16
 1512              	UART1_ERR_IRQHandler:
 1513              	.LFB47:
 750:../startup/startup_mk64f12.c **** 
 751:../startup/startup_mk64f12.c **** WEAK void UART1_ERR_IRQHandler(void)
 752:../startup/startup_mk64f12.c **** {   UART1_ERR_DriverIRQHandler();
 1514              		.loc 1 752 0
 1515              		.cfi_startproc
 1516              		@ args = 0, pretend = 0, frame = 0
 1517              		@ frame_needed = 0, uses_anonymous_args = 0
 1518 0000 08B5     		push	{r3, lr}
 1519              		.cfi_def_cfa_offset 8
 1520              		.cfi_offset 3, -8
 1521              		.cfi_offset 14, -4
 1522              		.loc 1 752 0
 1523 0002 FFF7FEFF 		bl	UART1_ERR_DriverIRQHandler
 753:../startup/startup_mk64f12.c **** }
 1524              		.loc 1 753 0
 1525 0006 08BD     		pop	{r3, pc}
 1526              		.cfi_endproc
 1527              	.LFE47:
 1529              		.section	.text.UART2_RX_TX_IRQHandler,"ax",%progbits
 1530              		.align	1
 1531              		.weak	UART2_RX_TX_IRQHandler
 1532              		.syntax unified
 1533              		.thumb
 1534              		.thumb_func
 1535              		.fpu fpv4-sp-d16
 1537              	UART2_RX_TX_IRQHandler:
 1538              	.LFB48:
 754:../startup/startup_mk64f12.c **** 
 755:../startup/startup_mk64f12.c **** WEAK void UART2_RX_TX_IRQHandler(void)
 756:../startup/startup_mk64f12.c **** {   UART2_RX_TX_DriverIRQHandler();
 1539              		.loc 1 756 0
 1540              		.cfi_startproc
 1541              		@ args = 0, pretend = 0, frame = 0
 1542              		@ frame_needed = 0, uses_anonymous_args = 0
 1543 0000 08B5     		push	{r3, lr}
 1544              		.cfi_def_cfa_offset 8
 1545              		.cfi_offset 3, -8
 1546              		.cfi_offset 14, -4
 1547              		.loc 1 756 0
 1548 0002 FFF7FEFF 		bl	UART2_RX_TX_DriverIRQHandler
 757:../startup/startup_mk64f12.c **** }
 1549              		.loc 1 757 0
 1550 0006 08BD     		pop	{r3, pc}
 1551              		.cfi_endproc
 1552              	.LFE48:
 1554              		.section	.text.UART2_ERR_IRQHandler,"ax",%progbits
 1555              		.align	1
 1556              		.weak	UART2_ERR_IRQHandler
 1557              		.syntax unified
 1558              		.thumb
 1559              		.thumb_func
 1560              		.fpu fpv4-sp-d16
 1562              	UART2_ERR_IRQHandler:
 1563              	.LFB49:
 758:../startup/startup_mk64f12.c **** 
 759:../startup/startup_mk64f12.c **** WEAK void UART2_ERR_IRQHandler(void)
 760:../startup/startup_mk64f12.c **** {   UART2_ERR_DriverIRQHandler();
 1564              		.loc 1 760 0
 1565              		.cfi_startproc
 1566              		@ args = 0, pretend = 0, frame = 0
 1567              		@ frame_needed = 0, uses_anonymous_args = 0
 1568 0000 08B5     		push	{r3, lr}
 1569              		.cfi_def_cfa_offset 8
 1570              		.cfi_offset 3, -8
 1571              		.cfi_offset 14, -4
 1572              		.loc 1 760 0
 1573 0002 FFF7FEFF 		bl	UART2_ERR_DriverIRQHandler
 761:../startup/startup_mk64f12.c **** }
 1574              		.loc 1 761 0
 1575 0006 08BD     		pop	{r3, pc}
 1576              		.cfi_endproc
 1577              	.LFE49:
 1579              		.section	.text.UART3_RX_TX_IRQHandler,"ax",%progbits
 1580              		.align	1
 1581              		.weak	UART3_RX_TX_IRQHandler
 1582              		.syntax unified
 1583              		.thumb
 1584              		.thumb_func
 1585              		.fpu fpv4-sp-d16
 1587              	UART3_RX_TX_IRQHandler:
 1588              	.LFB50:
 762:../startup/startup_mk64f12.c **** 
 763:../startup/startup_mk64f12.c **** WEAK void UART3_RX_TX_IRQHandler(void)
 764:../startup/startup_mk64f12.c **** {   UART3_RX_TX_DriverIRQHandler();
 1589              		.loc 1 764 0
 1590              		.cfi_startproc
 1591              		@ args = 0, pretend = 0, frame = 0
 1592              		@ frame_needed = 0, uses_anonymous_args = 0
 1593 0000 08B5     		push	{r3, lr}
 1594              		.cfi_def_cfa_offset 8
 1595              		.cfi_offset 3, -8
 1596              		.cfi_offset 14, -4
 1597              		.loc 1 764 0
 1598 0002 FFF7FEFF 		bl	UART3_RX_TX_DriverIRQHandler
 765:../startup/startup_mk64f12.c **** }
 1599              		.loc 1 765 0
 1600 0006 08BD     		pop	{r3, pc}
 1601              		.cfi_endproc
 1602              	.LFE50:
 1604              		.section	.text.UART3_ERR_IRQHandler,"ax",%progbits
 1605              		.align	1
 1606              		.weak	UART3_ERR_IRQHandler
 1607              		.syntax unified
 1608              		.thumb
 1609              		.thumb_func
 1610              		.fpu fpv4-sp-d16
 1612              	UART3_ERR_IRQHandler:
 1613              	.LFB51:
 766:../startup/startup_mk64f12.c **** 
 767:../startup/startup_mk64f12.c **** WEAK void UART3_ERR_IRQHandler(void)
 768:../startup/startup_mk64f12.c **** {   UART3_ERR_DriverIRQHandler();
 1614              		.loc 1 768 0
 1615              		.cfi_startproc
 1616              		@ args = 0, pretend = 0, frame = 0
 1617              		@ frame_needed = 0, uses_anonymous_args = 0
 1618 0000 08B5     		push	{r3, lr}
 1619              		.cfi_def_cfa_offset 8
 1620              		.cfi_offset 3, -8
 1621              		.cfi_offset 14, -4
 1622              		.loc 1 768 0
 1623 0002 FFF7FEFF 		bl	UART3_ERR_DriverIRQHandler
 769:../startup/startup_mk64f12.c **** }
 1624              		.loc 1 769 0
 1625 0006 08BD     		pop	{r3, pc}
 1626              		.cfi_endproc
 1627              	.LFE51:
 1629              		.section	.text.ADC0_IRQHandler,"ax",%progbits
 1630              		.align	1
 1631              		.weak	ADC0_IRQHandler
 1632              		.syntax unified
 1633              		.thumb
 1634              		.thumb_func
 1635              		.fpu fpv4-sp-d16
 1637              	ADC0_IRQHandler:
 1638              	.LFB52:
 770:../startup/startup_mk64f12.c **** 
 771:../startup/startup_mk64f12.c **** WEAK void ADC0_IRQHandler(void)
 772:../startup/startup_mk64f12.c **** {   ADC0_DriverIRQHandler();
 1639              		.loc 1 772 0
 1640              		.cfi_startproc
 1641              		@ args = 0, pretend = 0, frame = 0
 1642              		@ frame_needed = 0, uses_anonymous_args = 0
 1643 0000 08B5     		push	{r3, lr}
 1644              		.cfi_def_cfa_offset 8
 1645              		.cfi_offset 3, -8
 1646              		.cfi_offset 14, -4
 1647              		.loc 1 772 0
 1648 0002 FFF7FEFF 		bl	ADC0_DriverIRQHandler
 773:../startup/startup_mk64f12.c **** }
 1649              		.loc 1 773 0
 1650 0006 08BD     		pop	{r3, pc}
 1651              		.cfi_endproc
 1652              	.LFE52:
 1654              		.section	.text.CMP0_IRQHandler,"ax",%progbits
 1655              		.align	1
 1656              		.weak	CMP0_IRQHandler
 1657              		.syntax unified
 1658              		.thumb
 1659              		.thumb_func
 1660              		.fpu fpv4-sp-d16
 1662              	CMP0_IRQHandler:
 1663              	.LFB53:
 774:../startup/startup_mk64f12.c **** 
 775:../startup/startup_mk64f12.c **** WEAK void CMP0_IRQHandler(void)
 776:../startup/startup_mk64f12.c **** {   CMP0_DriverIRQHandler();
 1664              		.loc 1 776 0
 1665              		.cfi_startproc
 1666              		@ args = 0, pretend = 0, frame = 0
 1667              		@ frame_needed = 0, uses_anonymous_args = 0
 1668 0000 08B5     		push	{r3, lr}
 1669              		.cfi_def_cfa_offset 8
 1670              		.cfi_offset 3, -8
 1671              		.cfi_offset 14, -4
 1672              		.loc 1 776 0
 1673 0002 FFF7FEFF 		bl	CMP0_DriverIRQHandler
 777:../startup/startup_mk64f12.c **** }
 1674              		.loc 1 777 0
 1675 0006 08BD     		pop	{r3, pc}
 1676              		.cfi_endproc
 1677              	.LFE53:
 1679              		.section	.text.CMP1_IRQHandler,"ax",%progbits
 1680              		.align	1
 1681              		.weak	CMP1_IRQHandler
 1682              		.syntax unified
 1683              		.thumb
 1684              		.thumb_func
 1685              		.fpu fpv4-sp-d16
 1687              	CMP1_IRQHandler:
 1688              	.LFB54:
 778:../startup/startup_mk64f12.c **** 
 779:../startup/startup_mk64f12.c **** WEAK void CMP1_IRQHandler(void)
 780:../startup/startup_mk64f12.c **** {   CMP1_DriverIRQHandler();
 1689              		.loc 1 780 0
 1690              		.cfi_startproc
 1691              		@ args = 0, pretend = 0, frame = 0
 1692              		@ frame_needed = 0, uses_anonymous_args = 0
 1693 0000 08B5     		push	{r3, lr}
 1694              		.cfi_def_cfa_offset 8
 1695              		.cfi_offset 3, -8
 1696              		.cfi_offset 14, -4
 1697              		.loc 1 780 0
 1698 0002 FFF7FEFF 		bl	CMP1_DriverIRQHandler
 781:../startup/startup_mk64f12.c **** }
 1699              		.loc 1 781 0
 1700 0006 08BD     		pop	{r3, pc}
 1701              		.cfi_endproc
 1702              	.LFE54:
 1704              		.section	.text.FTM0_IRQHandler,"ax",%progbits
 1705              		.align	1
 1706              		.weak	FTM0_IRQHandler
 1707              		.syntax unified
 1708              		.thumb
 1709              		.thumb_func
 1710              		.fpu fpv4-sp-d16
 1712              	FTM0_IRQHandler:
 1713              	.LFB55:
 782:../startup/startup_mk64f12.c **** 
 783:../startup/startup_mk64f12.c **** WEAK void FTM0_IRQHandler(void)
 784:../startup/startup_mk64f12.c **** {   FTM0_DriverIRQHandler();
 1714              		.loc 1 784 0
 1715              		.cfi_startproc
 1716              		@ args = 0, pretend = 0, frame = 0
 1717              		@ frame_needed = 0, uses_anonymous_args = 0
 1718 0000 08B5     		push	{r3, lr}
 1719              		.cfi_def_cfa_offset 8
 1720              		.cfi_offset 3, -8
 1721              		.cfi_offset 14, -4
 1722              		.loc 1 784 0
 1723 0002 FFF7FEFF 		bl	FTM0_DriverIRQHandler
 785:../startup/startup_mk64f12.c **** }
 1724              		.loc 1 785 0
 1725 0006 08BD     		pop	{r3, pc}
 1726              		.cfi_endproc
 1727              	.LFE55:
 1729              		.section	.text.FTM1_IRQHandler,"ax",%progbits
 1730              		.align	1
 1731              		.weak	FTM1_IRQHandler
 1732              		.syntax unified
 1733              		.thumb
 1734              		.thumb_func
 1735              		.fpu fpv4-sp-d16
 1737              	FTM1_IRQHandler:
 1738              	.LFB56:
 786:../startup/startup_mk64f12.c **** 
 787:../startup/startup_mk64f12.c **** WEAK void FTM1_IRQHandler(void)
 788:../startup/startup_mk64f12.c **** {   FTM1_DriverIRQHandler();
 1739              		.loc 1 788 0
 1740              		.cfi_startproc
 1741              		@ args = 0, pretend = 0, frame = 0
 1742              		@ frame_needed = 0, uses_anonymous_args = 0
 1743 0000 08B5     		push	{r3, lr}
 1744              		.cfi_def_cfa_offset 8
 1745              		.cfi_offset 3, -8
 1746              		.cfi_offset 14, -4
 1747              		.loc 1 788 0
 1748 0002 FFF7FEFF 		bl	FTM1_DriverIRQHandler
 789:../startup/startup_mk64f12.c **** }
 1749              		.loc 1 789 0
 1750 0006 08BD     		pop	{r3, pc}
 1751              		.cfi_endproc
 1752              	.LFE56:
 1754              		.section	.text.FTM2_IRQHandler,"ax",%progbits
 1755              		.align	1
 1756              		.weak	FTM2_IRQHandler
 1757              		.syntax unified
 1758              		.thumb
 1759              		.thumb_func
 1760              		.fpu fpv4-sp-d16
 1762              	FTM2_IRQHandler:
 1763              	.LFB57:
 790:../startup/startup_mk64f12.c **** 
 791:../startup/startup_mk64f12.c **** WEAK void FTM2_IRQHandler(void)
 792:../startup/startup_mk64f12.c **** {   FTM2_DriverIRQHandler();
 1764              		.loc 1 792 0
 1765              		.cfi_startproc
 1766              		@ args = 0, pretend = 0, frame = 0
 1767              		@ frame_needed = 0, uses_anonymous_args = 0
 1768 0000 08B5     		push	{r3, lr}
 1769              		.cfi_def_cfa_offset 8
 1770              		.cfi_offset 3, -8
 1771              		.cfi_offset 14, -4
 1772              		.loc 1 792 0
 1773 0002 FFF7FEFF 		bl	FTM2_DriverIRQHandler
 793:../startup/startup_mk64f12.c **** }
 1774              		.loc 1 793 0
 1775 0006 08BD     		pop	{r3, pc}
 1776              		.cfi_endproc
 1777              	.LFE57:
 1779              		.section	.text.CMT_IRQHandler,"ax",%progbits
 1780              		.align	1
 1781              		.weak	CMT_IRQHandler
 1782              		.syntax unified
 1783              		.thumb
 1784              		.thumb_func
 1785              		.fpu fpv4-sp-d16
 1787              	CMT_IRQHandler:
 1788              	.LFB58:
 794:../startup/startup_mk64f12.c **** 
 795:../startup/startup_mk64f12.c **** WEAK void CMT_IRQHandler(void)
 796:../startup/startup_mk64f12.c **** {   CMT_DriverIRQHandler();
 1789              		.loc 1 796 0
 1790              		.cfi_startproc
 1791              		@ args = 0, pretend = 0, frame = 0
 1792              		@ frame_needed = 0, uses_anonymous_args = 0
 1793 0000 08B5     		push	{r3, lr}
 1794              		.cfi_def_cfa_offset 8
 1795              		.cfi_offset 3, -8
 1796              		.cfi_offset 14, -4
 1797              		.loc 1 796 0
 1798 0002 FFF7FEFF 		bl	CMT_DriverIRQHandler
 797:../startup/startup_mk64f12.c **** }
 1799              		.loc 1 797 0
 1800 0006 08BD     		pop	{r3, pc}
 1801              		.cfi_endproc
 1802              	.LFE58:
 1804              		.section	.text.RTC_IRQHandler,"ax",%progbits
 1805              		.align	1
 1806              		.weak	RTC_IRQHandler
 1807              		.syntax unified
 1808              		.thumb
 1809              		.thumb_func
 1810              		.fpu fpv4-sp-d16
 1812              	RTC_IRQHandler:
 1813              	.LFB59:
 798:../startup/startup_mk64f12.c **** 
 799:../startup/startup_mk64f12.c **** WEAK void RTC_IRQHandler(void)
 800:../startup/startup_mk64f12.c **** {   RTC_DriverIRQHandler();
 1814              		.loc 1 800 0
 1815              		.cfi_startproc
 1816              		@ args = 0, pretend = 0, frame = 0
 1817              		@ frame_needed = 0, uses_anonymous_args = 0
 1818 0000 08B5     		push	{r3, lr}
 1819              		.cfi_def_cfa_offset 8
 1820              		.cfi_offset 3, -8
 1821              		.cfi_offset 14, -4
 1822              		.loc 1 800 0
 1823 0002 FFF7FEFF 		bl	RTC_DriverIRQHandler
 801:../startup/startup_mk64f12.c **** }
 1824              		.loc 1 801 0
 1825 0006 08BD     		pop	{r3, pc}
 1826              		.cfi_endproc
 1827              	.LFE59:
 1829              		.section	.text.RTC_Seconds_IRQHandler,"ax",%progbits
 1830              		.align	1
 1831              		.weak	RTC_Seconds_IRQHandler
 1832              		.syntax unified
 1833              		.thumb
 1834              		.thumb_func
 1835              		.fpu fpv4-sp-d16
 1837              	RTC_Seconds_IRQHandler:
 1838              	.LFB60:
 802:../startup/startup_mk64f12.c **** 
 803:../startup/startup_mk64f12.c **** WEAK void RTC_Seconds_IRQHandler(void)
 804:../startup/startup_mk64f12.c **** {   RTC_Seconds_DriverIRQHandler();
 1839              		.loc 1 804 0
 1840              		.cfi_startproc
 1841              		@ args = 0, pretend = 0, frame = 0
 1842              		@ frame_needed = 0, uses_anonymous_args = 0
 1843 0000 08B5     		push	{r3, lr}
 1844              		.cfi_def_cfa_offset 8
 1845              		.cfi_offset 3, -8
 1846              		.cfi_offset 14, -4
 1847              		.loc 1 804 0
 1848 0002 FFF7FEFF 		bl	RTC_Seconds_DriverIRQHandler
 805:../startup/startup_mk64f12.c **** }
 1849              		.loc 1 805 0
 1850 0006 08BD     		pop	{r3, pc}
 1851              		.cfi_endproc
 1852              	.LFE60:
 1854              		.section	.text.PIT0_IRQHandler,"ax",%progbits
 1855              		.align	1
 1856              		.weak	PIT0_IRQHandler
 1857              		.syntax unified
 1858              		.thumb
 1859              		.thumb_func
 1860              		.fpu fpv4-sp-d16
 1862              	PIT0_IRQHandler:
 1863              	.LFB61:
 806:../startup/startup_mk64f12.c **** 
 807:../startup/startup_mk64f12.c **** WEAK void PIT0_IRQHandler(void)
 808:../startup/startup_mk64f12.c **** {   PIT0_DriverIRQHandler();
 1864              		.loc 1 808 0
 1865              		.cfi_startproc
 1866              		@ args = 0, pretend = 0, frame = 0
 1867              		@ frame_needed = 0, uses_anonymous_args = 0
 1868 0000 08B5     		push	{r3, lr}
 1869              		.cfi_def_cfa_offset 8
 1870              		.cfi_offset 3, -8
 1871              		.cfi_offset 14, -4
 1872              		.loc 1 808 0
 1873 0002 FFF7FEFF 		bl	PIT0_DriverIRQHandler
 809:../startup/startup_mk64f12.c **** }
 1874              		.loc 1 809 0
 1875 0006 08BD     		pop	{r3, pc}
 1876              		.cfi_endproc
 1877              	.LFE61:
 1879              		.section	.text.PIT1_IRQHandler,"ax",%progbits
 1880              		.align	1
 1881              		.weak	PIT1_IRQHandler
 1882              		.syntax unified
 1883              		.thumb
 1884              		.thumb_func
 1885              		.fpu fpv4-sp-d16
 1887              	PIT1_IRQHandler:
 1888              	.LFB62:
 810:../startup/startup_mk64f12.c **** 
 811:../startup/startup_mk64f12.c **** WEAK void PIT1_IRQHandler(void)
 812:../startup/startup_mk64f12.c **** {   PIT1_DriverIRQHandler();
 1889              		.loc 1 812 0
 1890              		.cfi_startproc
 1891              		@ args = 0, pretend = 0, frame = 0
 1892              		@ frame_needed = 0, uses_anonymous_args = 0
 1893 0000 08B5     		push	{r3, lr}
 1894              		.cfi_def_cfa_offset 8
 1895              		.cfi_offset 3, -8
 1896              		.cfi_offset 14, -4
 1897              		.loc 1 812 0
 1898 0002 FFF7FEFF 		bl	PIT1_DriverIRQHandler
 813:../startup/startup_mk64f12.c **** }
 1899              		.loc 1 813 0
 1900 0006 08BD     		pop	{r3, pc}
 1901              		.cfi_endproc
 1902              	.LFE62:
 1904              		.section	.text.PIT2_IRQHandler,"ax",%progbits
 1905              		.align	1
 1906              		.weak	PIT2_IRQHandler
 1907              		.syntax unified
 1908              		.thumb
 1909              		.thumb_func
 1910              		.fpu fpv4-sp-d16
 1912              	PIT2_IRQHandler:
 1913              	.LFB63:
 814:../startup/startup_mk64f12.c **** 
 815:../startup/startup_mk64f12.c **** WEAK void PIT2_IRQHandler(void)
 816:../startup/startup_mk64f12.c **** {   PIT2_DriverIRQHandler();
 1914              		.loc 1 816 0
 1915              		.cfi_startproc
 1916              		@ args = 0, pretend = 0, frame = 0
 1917              		@ frame_needed = 0, uses_anonymous_args = 0
 1918 0000 08B5     		push	{r3, lr}
 1919              		.cfi_def_cfa_offset 8
 1920              		.cfi_offset 3, -8
 1921              		.cfi_offset 14, -4
 1922              		.loc 1 816 0
 1923 0002 FFF7FEFF 		bl	PIT2_DriverIRQHandler
 817:../startup/startup_mk64f12.c **** }
 1924              		.loc 1 817 0
 1925 0006 08BD     		pop	{r3, pc}
 1926              		.cfi_endproc
 1927              	.LFE63:
 1929              		.section	.text.PIT3_IRQHandler,"ax",%progbits
 1930              		.align	1
 1931              		.weak	PIT3_IRQHandler
 1932              		.syntax unified
 1933              		.thumb
 1934              		.thumb_func
 1935              		.fpu fpv4-sp-d16
 1937              	PIT3_IRQHandler:
 1938              	.LFB64:
 818:../startup/startup_mk64f12.c **** 
 819:../startup/startup_mk64f12.c **** WEAK void PIT3_IRQHandler(void)
 820:../startup/startup_mk64f12.c **** {   PIT3_DriverIRQHandler();
 1939              		.loc 1 820 0
 1940              		.cfi_startproc
 1941              		@ args = 0, pretend = 0, frame = 0
 1942              		@ frame_needed = 0, uses_anonymous_args = 0
 1943 0000 08B5     		push	{r3, lr}
 1944              		.cfi_def_cfa_offset 8
 1945              		.cfi_offset 3, -8
 1946              		.cfi_offset 14, -4
 1947              		.loc 1 820 0
 1948 0002 FFF7FEFF 		bl	PIT3_DriverIRQHandler
 821:../startup/startup_mk64f12.c **** }
 1949              		.loc 1 821 0
 1950 0006 08BD     		pop	{r3, pc}
 1951              		.cfi_endproc
 1952              	.LFE64:
 1954              		.section	.text.PDB0_IRQHandler,"ax",%progbits
 1955              		.align	1
 1956              		.weak	PDB0_IRQHandler
 1957              		.syntax unified
 1958              		.thumb
 1959              		.thumb_func
 1960              		.fpu fpv4-sp-d16
 1962              	PDB0_IRQHandler:
 1963              	.LFB65:
 822:../startup/startup_mk64f12.c **** 
 823:../startup/startup_mk64f12.c **** WEAK void PDB0_IRQHandler(void)
 824:../startup/startup_mk64f12.c **** {   PDB0_DriverIRQHandler();
 1964              		.loc 1 824 0
 1965              		.cfi_startproc
 1966              		@ args = 0, pretend = 0, frame = 0
 1967              		@ frame_needed = 0, uses_anonymous_args = 0
 1968 0000 08B5     		push	{r3, lr}
 1969              		.cfi_def_cfa_offset 8
 1970              		.cfi_offset 3, -8
 1971              		.cfi_offset 14, -4
 1972              		.loc 1 824 0
 1973 0002 FFF7FEFF 		bl	PDB0_DriverIRQHandler
 825:../startup/startup_mk64f12.c **** }
 1974              		.loc 1 825 0
 1975 0006 08BD     		pop	{r3, pc}
 1976              		.cfi_endproc
 1977              	.LFE65:
 1979              		.section	.text.USB0_IRQHandler,"ax",%progbits
 1980              		.align	1
 1981              		.weak	USB0_IRQHandler
 1982              		.syntax unified
 1983              		.thumb
 1984              		.thumb_func
 1985              		.fpu fpv4-sp-d16
 1987              	USB0_IRQHandler:
 1988              	.LFB66:
 826:../startup/startup_mk64f12.c **** 
 827:../startup/startup_mk64f12.c **** WEAK void USB0_IRQHandler(void)
 828:../startup/startup_mk64f12.c **** {   USB0_DriverIRQHandler();
 1989              		.loc 1 828 0
 1990              		.cfi_startproc
 1991              		@ args = 0, pretend = 0, frame = 0
 1992              		@ frame_needed = 0, uses_anonymous_args = 0
 1993 0000 08B5     		push	{r3, lr}
 1994              		.cfi_def_cfa_offset 8
 1995              		.cfi_offset 3, -8
 1996              		.cfi_offset 14, -4
 1997              		.loc 1 828 0
 1998 0002 FFF7FEFF 		bl	USB0_DriverIRQHandler
 829:../startup/startup_mk64f12.c **** }
 1999              		.loc 1 829 0
 2000 0006 08BD     		pop	{r3, pc}
 2001              		.cfi_endproc
 2002              	.LFE66:
 2004              		.section	.text.USBDCD_IRQHandler,"ax",%progbits
 2005              		.align	1
 2006              		.weak	USBDCD_IRQHandler
 2007              		.syntax unified
 2008              		.thumb
 2009              		.thumb_func
 2010              		.fpu fpv4-sp-d16
 2012              	USBDCD_IRQHandler:
 2013              	.LFB67:
 830:../startup/startup_mk64f12.c **** 
 831:../startup/startup_mk64f12.c **** WEAK void USBDCD_IRQHandler(void)
 832:../startup/startup_mk64f12.c **** {   USBDCD_DriverIRQHandler();
 2014              		.loc 1 832 0
 2015              		.cfi_startproc
 2016              		@ args = 0, pretend = 0, frame = 0
 2017              		@ frame_needed = 0, uses_anonymous_args = 0
 2018 0000 08B5     		push	{r3, lr}
 2019              		.cfi_def_cfa_offset 8
 2020              		.cfi_offset 3, -8
 2021              		.cfi_offset 14, -4
 2022              		.loc 1 832 0
 2023 0002 FFF7FEFF 		bl	USBDCD_DriverIRQHandler
 833:../startup/startup_mk64f12.c **** }
 2024              		.loc 1 833 0
 2025 0006 08BD     		pop	{r3, pc}
 2026              		.cfi_endproc
 2027              	.LFE67:
 2029              		.section	.text.Reserved71_IRQHandler,"ax",%progbits
 2030              		.align	1
 2031              		.weak	Reserved71_IRQHandler
 2032              		.syntax unified
 2033              		.thumb
 2034              		.thumb_func
 2035              		.fpu fpv4-sp-d16
 2037              	Reserved71_IRQHandler:
 2038              	.LFB68:
 834:../startup/startup_mk64f12.c **** 
 835:../startup/startup_mk64f12.c **** WEAK void Reserved71_IRQHandler(void)
 836:../startup/startup_mk64f12.c **** {   Reserved71_DriverIRQHandler();
 2039              		.loc 1 836 0
 2040              		.cfi_startproc
 2041              		@ args = 0, pretend = 0, frame = 0
 2042              		@ frame_needed = 0, uses_anonymous_args = 0
 2043 0000 08B5     		push	{r3, lr}
 2044              		.cfi_def_cfa_offset 8
 2045              		.cfi_offset 3, -8
 2046              		.cfi_offset 14, -4
 2047              		.loc 1 836 0
 2048 0002 FFF7FEFF 		bl	Reserved71_DriverIRQHandler
 837:../startup/startup_mk64f12.c **** }
 2049              		.loc 1 837 0
 2050 0006 08BD     		pop	{r3, pc}
 2051              		.cfi_endproc
 2052              	.LFE68:
 2054              		.section	.text.DAC0_IRQHandler,"ax",%progbits
 2055              		.align	1
 2056              		.weak	DAC0_IRQHandler
 2057              		.syntax unified
 2058              		.thumb
 2059              		.thumb_func
 2060              		.fpu fpv4-sp-d16
 2062              	DAC0_IRQHandler:
 2063              	.LFB69:
 838:../startup/startup_mk64f12.c **** 
 839:../startup/startup_mk64f12.c **** WEAK void DAC0_IRQHandler(void)
 840:../startup/startup_mk64f12.c **** {   DAC0_DriverIRQHandler();
 2064              		.loc 1 840 0
 2065              		.cfi_startproc
 2066              		@ args = 0, pretend = 0, frame = 0
 2067              		@ frame_needed = 0, uses_anonymous_args = 0
 2068 0000 08B5     		push	{r3, lr}
 2069              		.cfi_def_cfa_offset 8
 2070              		.cfi_offset 3, -8
 2071              		.cfi_offset 14, -4
 2072              		.loc 1 840 0
 2073 0002 FFF7FEFF 		bl	DAC0_DriverIRQHandler
 841:../startup/startup_mk64f12.c **** }
 2074              		.loc 1 841 0
 2075 0006 08BD     		pop	{r3, pc}
 2076              		.cfi_endproc
 2077              	.LFE69:
 2079              		.section	.text.MCG_IRQHandler,"ax",%progbits
 2080              		.align	1
 2081              		.weak	MCG_IRQHandler
 2082              		.syntax unified
 2083              		.thumb
 2084              		.thumb_func
 2085              		.fpu fpv4-sp-d16
 2087              	MCG_IRQHandler:
 2088              	.LFB70:
 842:../startup/startup_mk64f12.c **** 
 843:../startup/startup_mk64f12.c **** WEAK void MCG_IRQHandler(void)
 844:../startup/startup_mk64f12.c **** {   MCG_DriverIRQHandler();
 2089              		.loc 1 844 0
 2090              		.cfi_startproc
 2091              		@ args = 0, pretend = 0, frame = 0
 2092              		@ frame_needed = 0, uses_anonymous_args = 0
 2093 0000 08B5     		push	{r3, lr}
 2094              		.cfi_def_cfa_offset 8
 2095              		.cfi_offset 3, -8
 2096              		.cfi_offset 14, -4
 2097              		.loc 1 844 0
 2098 0002 FFF7FEFF 		bl	MCG_DriverIRQHandler
 845:../startup/startup_mk64f12.c **** }
 2099              		.loc 1 845 0
 2100 0006 08BD     		pop	{r3, pc}
 2101              		.cfi_endproc
 2102              	.LFE70:
 2104              		.section	.text.LPTMR0_IRQHandler,"ax",%progbits
 2105              		.align	1
 2106              		.weak	LPTMR0_IRQHandler
 2107              		.syntax unified
 2108              		.thumb
 2109              		.thumb_func
 2110              		.fpu fpv4-sp-d16
 2112              	LPTMR0_IRQHandler:
 2113              	.LFB71:
 846:../startup/startup_mk64f12.c **** 
 847:../startup/startup_mk64f12.c **** WEAK void LPTMR0_IRQHandler(void)
 848:../startup/startup_mk64f12.c **** {   LPTMR0_DriverIRQHandler();
 2114              		.loc 1 848 0
 2115              		.cfi_startproc
 2116              		@ args = 0, pretend = 0, frame = 0
 2117              		@ frame_needed = 0, uses_anonymous_args = 0
 2118 0000 08B5     		push	{r3, lr}
 2119              		.cfi_def_cfa_offset 8
 2120              		.cfi_offset 3, -8
 2121              		.cfi_offset 14, -4
 2122              		.loc 1 848 0
 2123 0002 FFF7FEFF 		bl	LPTMR0_DriverIRQHandler
 849:../startup/startup_mk64f12.c **** }
 2124              		.loc 1 849 0
 2125 0006 08BD     		pop	{r3, pc}
 2126              		.cfi_endproc
 2127              	.LFE71:
 2129              		.section	.text.PORTA_IRQHandler,"ax",%progbits
 2130              		.align	1
 2131              		.weak	PORTA_IRQHandler
 2132              		.syntax unified
 2133              		.thumb
 2134              		.thumb_func
 2135              		.fpu fpv4-sp-d16
 2137              	PORTA_IRQHandler:
 2138              	.LFB72:
 850:../startup/startup_mk64f12.c **** 
 851:../startup/startup_mk64f12.c **** WEAK void PORTA_IRQHandler(void)
 852:../startup/startup_mk64f12.c **** {   PORTA_DriverIRQHandler();
 2139              		.loc 1 852 0
 2140              		.cfi_startproc
 2141              		@ args = 0, pretend = 0, frame = 0
 2142              		@ frame_needed = 0, uses_anonymous_args = 0
 2143 0000 08B5     		push	{r3, lr}
 2144              		.cfi_def_cfa_offset 8
 2145              		.cfi_offset 3, -8
 2146              		.cfi_offset 14, -4
 2147              		.loc 1 852 0
 2148 0002 FFF7FEFF 		bl	PORTA_DriverIRQHandler
 853:../startup/startup_mk64f12.c **** }
 2149              		.loc 1 853 0
 2150 0006 08BD     		pop	{r3, pc}
 2151              		.cfi_endproc
 2152              	.LFE72:
 2154              		.section	.text.PORTB_IRQHandler,"ax",%progbits
 2155              		.align	1
 2156              		.weak	PORTB_IRQHandler
 2157              		.syntax unified
 2158              		.thumb
 2159              		.thumb_func
 2160              		.fpu fpv4-sp-d16
 2162              	PORTB_IRQHandler:
 2163              	.LFB73:
 854:../startup/startup_mk64f12.c **** 
 855:../startup/startup_mk64f12.c **** WEAK void PORTB_IRQHandler(void)
 856:../startup/startup_mk64f12.c **** {   PORTB_DriverIRQHandler();
 2164              		.loc 1 856 0
 2165              		.cfi_startproc
 2166              		@ args = 0, pretend = 0, frame = 0
 2167              		@ frame_needed = 0, uses_anonymous_args = 0
 2168 0000 08B5     		push	{r3, lr}
 2169              		.cfi_def_cfa_offset 8
 2170              		.cfi_offset 3, -8
 2171              		.cfi_offset 14, -4
 2172              		.loc 1 856 0
 2173 0002 FFF7FEFF 		bl	PORTB_DriverIRQHandler
 857:../startup/startup_mk64f12.c **** }
 2174              		.loc 1 857 0
 2175 0006 08BD     		pop	{r3, pc}
 2176              		.cfi_endproc
 2177              	.LFE73:
 2179              		.section	.text.PORTC_IRQHandler,"ax",%progbits
 2180              		.align	1
 2181              		.weak	PORTC_IRQHandler
 2182              		.syntax unified
 2183              		.thumb
 2184              		.thumb_func
 2185              		.fpu fpv4-sp-d16
 2187              	PORTC_IRQHandler:
 2188              	.LFB74:
 858:../startup/startup_mk64f12.c **** 
 859:../startup/startup_mk64f12.c **** WEAK void PORTC_IRQHandler(void)
 860:../startup/startup_mk64f12.c **** {   PORTC_DriverIRQHandler();
 2189              		.loc 1 860 0
 2190              		.cfi_startproc
 2191              		@ args = 0, pretend = 0, frame = 0
 2192              		@ frame_needed = 0, uses_anonymous_args = 0
 2193 0000 08B5     		push	{r3, lr}
 2194              		.cfi_def_cfa_offset 8
 2195              		.cfi_offset 3, -8
 2196              		.cfi_offset 14, -4
 2197              		.loc 1 860 0
 2198 0002 FFF7FEFF 		bl	PORTC_DriverIRQHandler
 861:../startup/startup_mk64f12.c **** }
 2199              		.loc 1 861 0
 2200 0006 08BD     		pop	{r3, pc}
 2201              		.cfi_endproc
 2202              	.LFE74:
 2204              		.section	.text.PORTD_IRQHandler,"ax",%progbits
 2205              		.align	1
 2206              		.weak	PORTD_IRQHandler
 2207              		.syntax unified
 2208              		.thumb
 2209              		.thumb_func
 2210              		.fpu fpv4-sp-d16
 2212              	PORTD_IRQHandler:
 2213              	.LFB75:
 862:../startup/startup_mk64f12.c **** 
 863:../startup/startup_mk64f12.c **** WEAK void PORTD_IRQHandler(void)
 864:../startup/startup_mk64f12.c **** {   PORTD_DriverIRQHandler();
 2214              		.loc 1 864 0
 2215              		.cfi_startproc
 2216              		@ args = 0, pretend = 0, frame = 0
 2217              		@ frame_needed = 0, uses_anonymous_args = 0
 2218 0000 08B5     		push	{r3, lr}
 2219              		.cfi_def_cfa_offset 8
 2220              		.cfi_offset 3, -8
 2221              		.cfi_offset 14, -4
 2222              		.loc 1 864 0
 2223 0002 FFF7FEFF 		bl	PORTD_DriverIRQHandler
 865:../startup/startup_mk64f12.c **** }
 2224              		.loc 1 865 0
 2225 0006 08BD     		pop	{r3, pc}
 2226              		.cfi_endproc
 2227              	.LFE75:
 2229              		.section	.text.PORTE_IRQHandler,"ax",%progbits
 2230              		.align	1
 2231              		.weak	PORTE_IRQHandler
 2232              		.syntax unified
 2233              		.thumb
 2234              		.thumb_func
 2235              		.fpu fpv4-sp-d16
 2237              	PORTE_IRQHandler:
 2238              	.LFB76:
 866:../startup/startup_mk64f12.c **** 
 867:../startup/startup_mk64f12.c **** WEAK void PORTE_IRQHandler(void)
 868:../startup/startup_mk64f12.c **** {   PORTE_DriverIRQHandler();
 2239              		.loc 1 868 0
 2240              		.cfi_startproc
 2241              		@ args = 0, pretend = 0, frame = 0
 2242              		@ frame_needed = 0, uses_anonymous_args = 0
 2243 0000 08B5     		push	{r3, lr}
 2244              		.cfi_def_cfa_offset 8
 2245              		.cfi_offset 3, -8
 2246              		.cfi_offset 14, -4
 2247              		.loc 1 868 0
 2248 0002 FFF7FEFF 		bl	PORTE_DriverIRQHandler
 869:../startup/startup_mk64f12.c **** }
 2249              		.loc 1 869 0
 2250 0006 08BD     		pop	{r3, pc}
 2251              		.cfi_endproc
 2252              	.LFE76:
 2254              		.section	.text.SWI_IRQHandler,"ax",%progbits
 2255              		.align	1
 2256              		.weak	SWI_IRQHandler
 2257              		.syntax unified
 2258              		.thumb
 2259              		.thumb_func
 2260              		.fpu fpv4-sp-d16
 2262              	SWI_IRQHandler:
 2263              	.LFB77:
 870:../startup/startup_mk64f12.c **** 
 871:../startup/startup_mk64f12.c **** WEAK void SWI_IRQHandler(void)
 872:../startup/startup_mk64f12.c **** {   SWI_DriverIRQHandler();
 2264              		.loc 1 872 0
 2265              		.cfi_startproc
 2266              		@ args = 0, pretend = 0, frame = 0
 2267              		@ frame_needed = 0, uses_anonymous_args = 0
 2268 0000 08B5     		push	{r3, lr}
 2269              		.cfi_def_cfa_offset 8
 2270              		.cfi_offset 3, -8
 2271              		.cfi_offset 14, -4
 2272              		.loc 1 872 0
 2273 0002 FFF7FEFF 		bl	SWI_DriverIRQHandler
 873:../startup/startup_mk64f12.c **** }
 2274              		.loc 1 873 0
 2275 0006 08BD     		pop	{r3, pc}
 2276              		.cfi_endproc
 2277              	.LFE77:
 2279              		.section	.text.SPI2_IRQHandler,"ax",%progbits
 2280              		.align	1
 2281              		.weak	SPI2_IRQHandler
 2282              		.syntax unified
 2283              		.thumb
 2284              		.thumb_func
 2285              		.fpu fpv4-sp-d16
 2287              	SPI2_IRQHandler:
 2288              	.LFB78:
 874:../startup/startup_mk64f12.c **** 
 875:../startup/startup_mk64f12.c **** WEAK void SPI2_IRQHandler(void)
 876:../startup/startup_mk64f12.c **** {   SPI2_DriverIRQHandler();
 2289              		.loc 1 876 0
 2290              		.cfi_startproc
 2291              		@ args = 0, pretend = 0, frame = 0
 2292              		@ frame_needed = 0, uses_anonymous_args = 0
 2293 0000 08B5     		push	{r3, lr}
 2294              		.cfi_def_cfa_offset 8
 2295              		.cfi_offset 3, -8
 2296              		.cfi_offset 14, -4
 2297              		.loc 1 876 0
 2298 0002 FFF7FEFF 		bl	SPI2_DriverIRQHandler
 877:../startup/startup_mk64f12.c **** }
 2299              		.loc 1 877 0
 2300 0006 08BD     		pop	{r3, pc}
 2301              		.cfi_endproc
 2302              	.LFE78:
 2304              		.section	.text.UART4_RX_TX_IRQHandler,"ax",%progbits
 2305              		.align	1
 2306              		.weak	UART4_RX_TX_IRQHandler
 2307              		.syntax unified
 2308              		.thumb
 2309              		.thumb_func
 2310              		.fpu fpv4-sp-d16
 2312              	UART4_RX_TX_IRQHandler:
 2313              	.LFB79:
 878:../startup/startup_mk64f12.c **** 
 879:../startup/startup_mk64f12.c **** WEAK void UART4_RX_TX_IRQHandler(void)
 880:../startup/startup_mk64f12.c **** {   UART4_RX_TX_DriverIRQHandler();
 2314              		.loc 1 880 0
 2315              		.cfi_startproc
 2316              		@ args = 0, pretend = 0, frame = 0
 2317              		@ frame_needed = 0, uses_anonymous_args = 0
 2318 0000 08B5     		push	{r3, lr}
 2319              		.cfi_def_cfa_offset 8
 2320              		.cfi_offset 3, -8
 2321              		.cfi_offset 14, -4
 2322              		.loc 1 880 0
 2323 0002 FFF7FEFF 		bl	UART4_RX_TX_DriverIRQHandler
 881:../startup/startup_mk64f12.c **** }
 2324              		.loc 1 881 0
 2325 0006 08BD     		pop	{r3, pc}
 2326              		.cfi_endproc
 2327              	.LFE79:
 2329              		.section	.text.UART4_ERR_IRQHandler,"ax",%progbits
 2330              		.align	1
 2331              		.weak	UART4_ERR_IRQHandler
 2332              		.syntax unified
 2333              		.thumb
 2334              		.thumb_func
 2335              		.fpu fpv4-sp-d16
 2337              	UART4_ERR_IRQHandler:
 2338              	.LFB80:
 882:../startup/startup_mk64f12.c **** 
 883:../startup/startup_mk64f12.c **** WEAK void UART4_ERR_IRQHandler(void)
 884:../startup/startup_mk64f12.c **** {   UART4_ERR_DriverIRQHandler();
 2339              		.loc 1 884 0
 2340              		.cfi_startproc
 2341              		@ args = 0, pretend = 0, frame = 0
 2342              		@ frame_needed = 0, uses_anonymous_args = 0
 2343 0000 08B5     		push	{r3, lr}
 2344              		.cfi_def_cfa_offset 8
 2345              		.cfi_offset 3, -8
 2346              		.cfi_offset 14, -4
 2347              		.loc 1 884 0
 2348 0002 FFF7FEFF 		bl	UART4_ERR_DriverIRQHandler
 885:../startup/startup_mk64f12.c **** }
 2349              		.loc 1 885 0
 2350 0006 08BD     		pop	{r3, pc}
 2351              		.cfi_endproc
 2352              	.LFE80:
 2354              		.section	.text.UART5_RX_TX_IRQHandler,"ax",%progbits
 2355              		.align	1
 2356              		.weak	UART5_RX_TX_IRQHandler
 2357              		.syntax unified
 2358              		.thumb
 2359              		.thumb_func
 2360              		.fpu fpv4-sp-d16
 2362              	UART5_RX_TX_IRQHandler:
 2363              	.LFB81:
 886:../startup/startup_mk64f12.c **** 
 887:../startup/startup_mk64f12.c **** WEAK void UART5_RX_TX_IRQHandler(void)
 888:../startup/startup_mk64f12.c **** {   UART5_RX_TX_DriverIRQHandler();
 2364              		.loc 1 888 0
 2365              		.cfi_startproc
 2366              		@ args = 0, pretend = 0, frame = 0
 2367              		@ frame_needed = 0, uses_anonymous_args = 0
 2368 0000 08B5     		push	{r3, lr}
 2369              		.cfi_def_cfa_offset 8
 2370              		.cfi_offset 3, -8
 2371              		.cfi_offset 14, -4
 2372              		.loc 1 888 0
 2373 0002 FFF7FEFF 		bl	UART5_RX_TX_DriverIRQHandler
 889:../startup/startup_mk64f12.c **** }
 2374              		.loc 1 889 0
 2375 0006 08BD     		pop	{r3, pc}
 2376              		.cfi_endproc
 2377              	.LFE81:
 2379              		.section	.text.UART5_ERR_IRQHandler,"ax",%progbits
 2380              		.align	1
 2381              		.weak	UART5_ERR_IRQHandler
 2382              		.syntax unified
 2383              		.thumb
 2384              		.thumb_func
 2385              		.fpu fpv4-sp-d16
 2387              	UART5_ERR_IRQHandler:
 2388              	.LFB82:
 890:../startup/startup_mk64f12.c **** 
 891:../startup/startup_mk64f12.c **** WEAK void UART5_ERR_IRQHandler(void)
 892:../startup/startup_mk64f12.c **** {   UART5_ERR_DriverIRQHandler();
 2389              		.loc 1 892 0
 2390              		.cfi_startproc
 2391              		@ args = 0, pretend = 0, frame = 0
 2392              		@ frame_needed = 0, uses_anonymous_args = 0
 2393 0000 08B5     		push	{r3, lr}
 2394              		.cfi_def_cfa_offset 8
 2395              		.cfi_offset 3, -8
 2396              		.cfi_offset 14, -4
 2397              		.loc 1 892 0
 2398 0002 FFF7FEFF 		bl	UART5_ERR_DriverIRQHandler
 893:../startup/startup_mk64f12.c **** }
 2399              		.loc 1 893 0
 2400 0006 08BD     		pop	{r3, pc}
 2401              		.cfi_endproc
 2402              	.LFE82:
 2404              		.section	.text.CMP2_IRQHandler,"ax",%progbits
 2405              		.align	1
 2406              		.weak	CMP2_IRQHandler
 2407              		.syntax unified
 2408              		.thumb
 2409              		.thumb_func
 2410              		.fpu fpv4-sp-d16
 2412              	CMP2_IRQHandler:
 2413              	.LFB83:
 894:../startup/startup_mk64f12.c **** 
 895:../startup/startup_mk64f12.c **** WEAK void CMP2_IRQHandler(void)
 896:../startup/startup_mk64f12.c **** {   CMP2_DriverIRQHandler();
 2414              		.loc 1 896 0
 2415              		.cfi_startproc
 2416              		@ args = 0, pretend = 0, frame = 0
 2417              		@ frame_needed = 0, uses_anonymous_args = 0
 2418 0000 08B5     		push	{r3, lr}
 2419              		.cfi_def_cfa_offset 8
 2420              		.cfi_offset 3, -8
 2421              		.cfi_offset 14, -4
 2422              		.loc 1 896 0
 2423 0002 FFF7FEFF 		bl	CMP2_DriverIRQHandler
 897:../startup/startup_mk64f12.c **** }
 2424              		.loc 1 897 0
 2425 0006 08BD     		pop	{r3, pc}
 2426              		.cfi_endproc
 2427              	.LFE83:
 2429              		.section	.text.FTM3_IRQHandler,"ax",%progbits
 2430              		.align	1
 2431              		.weak	FTM3_IRQHandler
 2432              		.syntax unified
 2433              		.thumb
 2434              		.thumb_func
 2435              		.fpu fpv4-sp-d16
 2437              	FTM3_IRQHandler:
 2438              	.LFB84:
 898:../startup/startup_mk64f12.c **** 
 899:../startup/startup_mk64f12.c **** WEAK void FTM3_IRQHandler(void)
 900:../startup/startup_mk64f12.c **** {   FTM3_DriverIRQHandler();
 2439              		.loc 1 900 0
 2440              		.cfi_startproc
 2441              		@ args = 0, pretend = 0, frame = 0
 2442              		@ frame_needed = 0, uses_anonymous_args = 0
 2443 0000 08B5     		push	{r3, lr}
 2444              		.cfi_def_cfa_offset 8
 2445              		.cfi_offset 3, -8
 2446              		.cfi_offset 14, -4
 2447              		.loc 1 900 0
 2448 0002 FFF7FEFF 		bl	FTM3_DriverIRQHandler
 901:../startup/startup_mk64f12.c **** }
 2449              		.loc 1 901 0
 2450 0006 08BD     		pop	{r3, pc}
 2451              		.cfi_endproc
 2452              	.LFE84:
 2454              		.section	.text.DAC1_IRQHandler,"ax",%progbits
 2455              		.align	1
 2456              		.weak	DAC1_IRQHandler
 2457              		.syntax unified
 2458              		.thumb
 2459              		.thumb_func
 2460              		.fpu fpv4-sp-d16
 2462              	DAC1_IRQHandler:
 2463              	.LFB85:
 902:../startup/startup_mk64f12.c **** 
 903:../startup/startup_mk64f12.c **** WEAK void DAC1_IRQHandler(void)
 904:../startup/startup_mk64f12.c **** {   DAC1_DriverIRQHandler();
 2464              		.loc 1 904 0
 2465              		.cfi_startproc
 2466              		@ args = 0, pretend = 0, frame = 0
 2467              		@ frame_needed = 0, uses_anonymous_args = 0
 2468 0000 08B5     		push	{r3, lr}
 2469              		.cfi_def_cfa_offset 8
 2470              		.cfi_offset 3, -8
 2471              		.cfi_offset 14, -4
 2472              		.loc 1 904 0
 2473 0002 FFF7FEFF 		bl	DAC1_DriverIRQHandler
 905:../startup/startup_mk64f12.c **** }
 2474              		.loc 1 905 0
 2475 0006 08BD     		pop	{r3, pc}
 2476              		.cfi_endproc
 2477              	.LFE85:
 2479              		.section	.text.ADC1_IRQHandler,"ax",%progbits
 2480              		.align	1
 2481              		.weak	ADC1_IRQHandler
 2482              		.syntax unified
 2483              		.thumb
 2484              		.thumb_func
 2485              		.fpu fpv4-sp-d16
 2487              	ADC1_IRQHandler:
 2488              	.LFB86:
 906:../startup/startup_mk64f12.c **** 
 907:../startup/startup_mk64f12.c **** WEAK void ADC1_IRQHandler(void)
 908:../startup/startup_mk64f12.c **** {   ADC1_DriverIRQHandler();
 2489              		.loc 1 908 0
 2490              		.cfi_startproc
 2491              		@ args = 0, pretend = 0, frame = 0
 2492              		@ frame_needed = 0, uses_anonymous_args = 0
 2493 0000 08B5     		push	{r3, lr}
 2494              		.cfi_def_cfa_offset 8
 2495              		.cfi_offset 3, -8
 2496              		.cfi_offset 14, -4
 2497              		.loc 1 908 0
 2498 0002 FFF7FEFF 		bl	ADC1_DriverIRQHandler
 909:../startup/startup_mk64f12.c **** }
 2499              		.loc 1 909 0
 2500 0006 08BD     		pop	{r3, pc}
 2501              		.cfi_endproc
 2502              	.LFE86:
 2504              		.section	.text.I2C2_IRQHandler,"ax",%progbits
 2505              		.align	1
 2506              		.weak	I2C2_IRQHandler
 2507              		.syntax unified
 2508              		.thumb
 2509              		.thumb_func
 2510              		.fpu fpv4-sp-d16
 2512              	I2C2_IRQHandler:
 2513              	.LFB87:
 910:../startup/startup_mk64f12.c **** 
 911:../startup/startup_mk64f12.c **** WEAK void I2C2_IRQHandler(void)
 912:../startup/startup_mk64f12.c **** {   I2C2_DriverIRQHandler();
 2514              		.loc 1 912 0
 2515              		.cfi_startproc
 2516              		@ args = 0, pretend = 0, frame = 0
 2517              		@ frame_needed = 0, uses_anonymous_args = 0
 2518 0000 08B5     		push	{r3, lr}
 2519              		.cfi_def_cfa_offset 8
 2520              		.cfi_offset 3, -8
 2521              		.cfi_offset 14, -4
 2522              		.loc 1 912 0
 2523 0002 FFF7FEFF 		bl	I2C2_DriverIRQHandler
 913:../startup/startup_mk64f12.c **** }
 2524              		.loc 1 913 0
 2525 0006 08BD     		pop	{r3, pc}
 2526              		.cfi_endproc
 2527              	.LFE87:
 2529              		.section	.text.CAN0_ORed_Message_buffer_IRQHandler,"ax",%progbits
 2530              		.align	1
 2531              		.weak	CAN0_ORed_Message_buffer_IRQHandler
 2532              		.syntax unified
 2533              		.thumb
 2534              		.thumb_func
 2535              		.fpu fpv4-sp-d16
 2537              	CAN0_ORed_Message_buffer_IRQHandler:
 2538              	.LFB88:
 914:../startup/startup_mk64f12.c **** 
 915:../startup/startup_mk64f12.c **** WEAK void CAN0_ORed_Message_buffer_IRQHandler(void)
 916:../startup/startup_mk64f12.c **** {   CAN0_DriverIRQHandler();
 2539              		.loc 1 916 0
 2540              		.cfi_startproc
 2541              		@ args = 0, pretend = 0, frame = 0
 2542              		@ frame_needed = 0, uses_anonymous_args = 0
 2543 0000 08B5     		push	{r3, lr}
 2544              		.cfi_def_cfa_offset 8
 2545              		.cfi_offset 3, -8
 2546              		.cfi_offset 14, -4
 2547              		.loc 1 916 0
 2548 0002 FFF7FEFF 		bl	CAN0_DriverIRQHandler
 917:../startup/startup_mk64f12.c **** }
 2549              		.loc 1 917 0
 2550 0006 08BD     		pop	{r3, pc}
 2551              		.cfi_endproc
 2552              	.LFE88:
 2554              		.section	.text.CAN0_Bus_Off_IRQHandler,"ax",%progbits
 2555              		.align	1
 2556              		.weak	CAN0_Bus_Off_IRQHandler
 2557              		.syntax unified
 2558              		.thumb
 2559              		.thumb_func
 2560              		.fpu fpv4-sp-d16
 2562              	CAN0_Bus_Off_IRQHandler:
 2563              	.LFB89:
 918:../startup/startup_mk64f12.c **** 
 919:../startup/startup_mk64f12.c **** WEAK void CAN0_Bus_Off_IRQHandler(void)
 920:../startup/startup_mk64f12.c **** {   CAN0_DriverIRQHandler();
 2564              		.loc 1 920 0
 2565              		.cfi_startproc
 2566              		@ args = 0, pretend = 0, frame = 0
 2567              		@ frame_needed = 0, uses_anonymous_args = 0
 2568 0000 08B5     		push	{r3, lr}
 2569              		.cfi_def_cfa_offset 8
 2570              		.cfi_offset 3, -8
 2571              		.cfi_offset 14, -4
 2572              		.loc 1 920 0
 2573 0002 FFF7FEFF 		bl	CAN0_DriverIRQHandler
 921:../startup/startup_mk64f12.c **** }
 2574              		.loc 1 921 0
 2575 0006 08BD     		pop	{r3, pc}
 2576              		.cfi_endproc
 2577              	.LFE89:
 2579              		.section	.text.CAN0_Error_IRQHandler,"ax",%progbits
 2580              		.align	1
 2581              		.weak	CAN0_Error_IRQHandler
 2582              		.syntax unified
 2583              		.thumb
 2584              		.thumb_func
 2585              		.fpu fpv4-sp-d16
 2587              	CAN0_Error_IRQHandler:
 2588              	.LFB90:
 922:../startup/startup_mk64f12.c **** 
 923:../startup/startup_mk64f12.c **** WEAK void CAN0_Error_IRQHandler(void)
 924:../startup/startup_mk64f12.c **** {   CAN0_DriverIRQHandler();
 2589              		.loc 1 924 0
 2590              		.cfi_startproc
 2591              		@ args = 0, pretend = 0, frame = 0
 2592              		@ frame_needed = 0, uses_anonymous_args = 0
 2593 0000 08B5     		push	{r3, lr}
 2594              		.cfi_def_cfa_offset 8
 2595              		.cfi_offset 3, -8
 2596              		.cfi_offset 14, -4
 2597              		.loc 1 924 0
 2598 0002 FFF7FEFF 		bl	CAN0_DriverIRQHandler
 925:../startup/startup_mk64f12.c **** }
 2599              		.loc 1 925 0
 2600 0006 08BD     		pop	{r3, pc}
 2601              		.cfi_endproc
 2602              	.LFE90:
 2604              		.section	.text.CAN0_Tx_Warning_IRQHandler,"ax",%progbits
 2605              		.align	1
 2606              		.weak	CAN0_Tx_Warning_IRQHandler
 2607              		.syntax unified
 2608              		.thumb
 2609              		.thumb_func
 2610              		.fpu fpv4-sp-d16
 2612              	CAN0_Tx_Warning_IRQHandler:
 2613              	.LFB91:
 926:../startup/startup_mk64f12.c **** 
 927:../startup/startup_mk64f12.c **** WEAK void CAN0_Tx_Warning_IRQHandler(void)
 928:../startup/startup_mk64f12.c **** {   CAN0_DriverIRQHandler();
 2614              		.loc 1 928 0
 2615              		.cfi_startproc
 2616              		@ args = 0, pretend = 0, frame = 0
 2617              		@ frame_needed = 0, uses_anonymous_args = 0
 2618 0000 08B5     		push	{r3, lr}
 2619              		.cfi_def_cfa_offset 8
 2620              		.cfi_offset 3, -8
 2621              		.cfi_offset 14, -4
 2622              		.loc 1 928 0
 2623 0002 FFF7FEFF 		bl	CAN0_DriverIRQHandler
 929:../startup/startup_mk64f12.c **** }
 2624              		.loc 1 929 0
 2625 0006 08BD     		pop	{r3, pc}
 2626              		.cfi_endproc
 2627              	.LFE91:
 2629              		.section	.text.CAN0_Rx_Warning_IRQHandler,"ax",%progbits
 2630              		.align	1
 2631              		.weak	CAN0_Rx_Warning_IRQHandler
 2632              		.syntax unified
 2633              		.thumb
 2634              		.thumb_func
 2635              		.fpu fpv4-sp-d16
 2637              	CAN0_Rx_Warning_IRQHandler:
 2638              	.LFB92:
 930:../startup/startup_mk64f12.c **** 
 931:../startup/startup_mk64f12.c **** WEAK void CAN0_Rx_Warning_IRQHandler(void)
 932:../startup/startup_mk64f12.c **** {   CAN0_DriverIRQHandler();
 2639              		.loc 1 932 0
 2640              		.cfi_startproc
 2641              		@ args = 0, pretend = 0, frame = 0
 2642              		@ frame_needed = 0, uses_anonymous_args = 0
 2643 0000 08B5     		push	{r3, lr}
 2644              		.cfi_def_cfa_offset 8
 2645              		.cfi_offset 3, -8
 2646              		.cfi_offset 14, -4
 2647              		.loc 1 932 0
 2648 0002 FFF7FEFF 		bl	CAN0_DriverIRQHandler
 933:../startup/startup_mk64f12.c **** }
 2649              		.loc 1 933 0
 2650 0006 08BD     		pop	{r3, pc}
 2651              		.cfi_endproc
 2652              	.LFE92:
 2654              		.section	.text.CAN0_Wake_Up_IRQHandler,"ax",%progbits
 2655              		.align	1
 2656              		.weak	CAN0_Wake_Up_IRQHandler
 2657              		.syntax unified
 2658              		.thumb
 2659              		.thumb_func
 2660              		.fpu fpv4-sp-d16
 2662              	CAN0_Wake_Up_IRQHandler:
 2663              	.LFB93:
 934:../startup/startup_mk64f12.c **** 
 935:../startup/startup_mk64f12.c **** WEAK void CAN0_Wake_Up_IRQHandler(void)
 936:../startup/startup_mk64f12.c **** {   CAN0_DriverIRQHandler();
 2664              		.loc 1 936 0
 2665              		.cfi_startproc
 2666              		@ args = 0, pretend = 0, frame = 0
 2667              		@ frame_needed = 0, uses_anonymous_args = 0
 2668 0000 08B5     		push	{r3, lr}
 2669              		.cfi_def_cfa_offset 8
 2670              		.cfi_offset 3, -8
 2671              		.cfi_offset 14, -4
 2672              		.loc 1 936 0
 2673 0002 FFF7FEFF 		bl	CAN0_DriverIRQHandler
 937:../startup/startup_mk64f12.c **** }
 2674              		.loc 1 937 0
 2675 0006 08BD     		pop	{r3, pc}
 2676              		.cfi_endproc
 2677              	.LFE93:
 2679              		.section	.text.SDHC_IRQHandler,"ax",%progbits
 2680              		.align	1
 2681              		.weak	SDHC_IRQHandler
 2682              		.syntax unified
 2683              		.thumb
 2684              		.thumb_func
 2685              		.fpu fpv4-sp-d16
 2687              	SDHC_IRQHandler:
 2688              	.LFB94:
 938:../startup/startup_mk64f12.c **** 
 939:../startup/startup_mk64f12.c **** WEAK void SDHC_IRQHandler(void)
 940:../startup/startup_mk64f12.c **** {   SDHC_DriverIRQHandler();
 2689              		.loc 1 940 0
 2690              		.cfi_startproc
 2691              		@ args = 0, pretend = 0, frame = 0
 2692              		@ frame_needed = 0, uses_anonymous_args = 0
 2693 0000 08B5     		push	{r3, lr}
 2694              		.cfi_def_cfa_offset 8
 2695              		.cfi_offset 3, -8
 2696              		.cfi_offset 14, -4
 2697              		.loc 1 940 0
 2698 0002 FFF7FEFF 		bl	SDHC_DriverIRQHandler
 941:../startup/startup_mk64f12.c **** }
 2699              		.loc 1 941 0
 2700 0006 08BD     		pop	{r3, pc}
 2701              		.cfi_endproc
 2702              	.LFE94:
 2704              		.section	.text.ENET_1588_Timer_IRQHandler,"ax",%progbits
 2705              		.align	1
 2706              		.weak	ENET_1588_Timer_IRQHandler
 2707              		.syntax unified
 2708              		.thumb
 2709              		.thumb_func
 2710              		.fpu fpv4-sp-d16
 2712              	ENET_1588_Timer_IRQHandler:
 2713              	.LFB95:
 942:../startup/startup_mk64f12.c **** 
 943:../startup/startup_mk64f12.c **** WEAK void ENET_1588_Timer_IRQHandler(void)
 944:../startup/startup_mk64f12.c **** {   ENET_1588_Timer_DriverIRQHandler();
 2714              		.loc 1 944 0
 2715              		.cfi_startproc
 2716              		@ args = 0, pretend = 0, frame = 0
 2717              		@ frame_needed = 0, uses_anonymous_args = 0
 2718 0000 08B5     		push	{r3, lr}
 2719              		.cfi_def_cfa_offset 8
 2720              		.cfi_offset 3, -8
 2721              		.cfi_offset 14, -4
 2722              		.loc 1 944 0
 2723 0002 FFF7FEFF 		bl	ENET_1588_Timer_DriverIRQHandler
 945:../startup/startup_mk64f12.c **** }
 2724              		.loc 1 945 0
 2725 0006 08BD     		pop	{r3, pc}
 2726              		.cfi_endproc
 2727              	.LFE95:
 2729              		.section	.text.ENET_Transmit_IRQHandler,"ax",%progbits
 2730              		.align	1
 2731              		.weak	ENET_Transmit_IRQHandler
 2732              		.syntax unified
 2733              		.thumb
 2734              		.thumb_func
 2735              		.fpu fpv4-sp-d16
 2737              	ENET_Transmit_IRQHandler:
 2738              	.LFB96:
 946:../startup/startup_mk64f12.c **** 
 947:../startup/startup_mk64f12.c **** WEAK void ENET_Transmit_IRQHandler(void)
 948:../startup/startup_mk64f12.c **** {   ENET_Transmit_DriverIRQHandler();
 2739              		.loc 1 948 0
 2740              		.cfi_startproc
 2741              		@ args = 0, pretend = 0, frame = 0
 2742              		@ frame_needed = 0, uses_anonymous_args = 0
 2743 0000 08B5     		push	{r3, lr}
 2744              		.cfi_def_cfa_offset 8
 2745              		.cfi_offset 3, -8
 2746              		.cfi_offset 14, -4
 2747              		.loc 1 948 0
 2748 0002 FFF7FEFF 		bl	ENET_Transmit_DriverIRQHandler
 949:../startup/startup_mk64f12.c **** }
 2749              		.loc 1 949 0
 2750 0006 08BD     		pop	{r3, pc}
 2751              		.cfi_endproc
 2752              	.LFE96:
 2754              		.section	.text.ENET_Receive_IRQHandler,"ax",%progbits
 2755              		.align	1
 2756              		.weak	ENET_Receive_IRQHandler
 2757              		.syntax unified
 2758              		.thumb
 2759              		.thumb_func
 2760              		.fpu fpv4-sp-d16
 2762              	ENET_Receive_IRQHandler:
 2763              	.LFB97:
 950:../startup/startup_mk64f12.c **** 
 951:../startup/startup_mk64f12.c **** WEAK void ENET_Receive_IRQHandler(void)
 952:../startup/startup_mk64f12.c **** {   ENET_Receive_DriverIRQHandler();
 2764              		.loc 1 952 0
 2765              		.cfi_startproc
 2766              		@ args = 0, pretend = 0, frame = 0
 2767              		@ frame_needed = 0, uses_anonymous_args = 0
 2768 0000 08B5     		push	{r3, lr}
 2769              		.cfi_def_cfa_offset 8
 2770              		.cfi_offset 3, -8
 2771              		.cfi_offset 14, -4
 2772              		.loc 1 952 0
 2773 0002 FFF7FEFF 		bl	ENET_Receive_DriverIRQHandler
 953:../startup/startup_mk64f12.c **** }
 2774              		.loc 1 953 0
 2775 0006 08BD     		pop	{r3, pc}
 2776              		.cfi_endproc
 2777              	.LFE97:
 2779              		.section	.text.ENET_Error_IRQHandler,"ax",%progbits
 2780              		.align	1
 2781              		.weak	ENET_Error_IRQHandler
 2782              		.syntax unified
 2783              		.thumb
 2784              		.thumb_func
 2785              		.fpu fpv4-sp-d16
 2787              	ENET_Error_IRQHandler:
 2788              	.LFB98:
 954:../startup/startup_mk64f12.c **** 
 955:../startup/startup_mk64f12.c **** WEAK void ENET_Error_IRQHandler(void)
 956:../startup/startup_mk64f12.c **** {   ENET_Error_DriverIRQHandler();
 2789              		.loc 1 956 0
 2790              		.cfi_startproc
 2791              		@ args = 0, pretend = 0, frame = 0
 2792              		@ frame_needed = 0, uses_anonymous_args = 0
 2793 0000 08B5     		push	{r3, lr}
 2794              		.cfi_def_cfa_offset 8
 2795              		.cfi_offset 3, -8
 2796              		.cfi_offset 14, -4
 2797              		.loc 1 956 0
 2798 0002 FFF7FEFF 		bl	ENET_Error_DriverIRQHandler
 957:../startup/startup_mk64f12.c **** }
 2799              		.loc 1 957 0
 2800 0006 08BD     		pop	{r3, pc}
 2801              		.cfi_endproc
 2802              	.LFE98:
 2804              		.text
 2805              	.Letext0: